(dp1
I131076
I1
sI19
I1
sI22
I1
sI131096
I1
sI27
I1
sI29
I1
sI30
I1
sI31
I1
sI32
I1
sI34
I1
sI37
I1
sI41
I1
sI163882
I1
sI43
I1
sI47
I1
sI51
I1
sI53
I1
sI55
I1
sI56
I1
sI81
I1
sI87
I1
sI91
I1
sI93
I1
sI95
I1
sI98
I1
sI101
I1
sI103
I1
sI104
I1
sI131177
I1
sI107
I1
sI109
I1
sI111
I1
sI113
I1
sI114
I1
sI117
I1
sI118
I1
sI119
I1
sI27327
I1
sI127
I1
sI132
I1
sI136
I1
sI27330
I1
sI147
I1
sI148
I1
sI158
I1
sI158405
I1
sI160
I1
sI161
I1
sI163
I1
sI166
I1
sI173
I1
sI176
I1
sI177
I1
sI178
I1
sI191
I1
sI199
I1
sI204
I1
sI164045
I1
sI208
I1
sI210
I1
sI211
I1
sI212
I1
sI214
I1
sI221
I1
sI225
I1
sI240
I1
sI249
I1
sI262
I1
sI265
I1
sI269
I1
sI271
I1
sI272
I1
sI273
I1
sI274
I1
sI275
I1
sI164118
I1
sI285
I1
sI286
I1
sI310
I1
sI311
I1
sI313
I1
sI316
I1
sI317
I1
sI321
I1
sI322
I1
sI323
I1
sI327
I1
sI333
I1
sI334
I1
sI196951
I1
sI351
I1
sI355
I1
sI357
I1
sI358
I1
sI361
I1
sI364
I1
sI368
I1
sI369
I1
sI373
I1
sI131450
I1
sI387
I1
sI196996
I1
sI395
I1
sI396
I1
sI405
I1
sI406
I1
sI408
I1
sI409
I1
sI410
I1
sI411
I1
sI414
I1
sI415
I1
sI416
I1
sI419
I1
sI421
I1
sI427
I1
sI433
I1
sI65975
I1
sI65979
I1
sI65980
I1
sI65981
I1
sI65982
I1
sI65983
I1
sI65985
I1
sI65988
I1
sI65989
I1
sI460
I1
sI66002
I1
sI467
I1
sI131540
I1
sI66005
I1
sI473
I1
sI489
I1
sI490
I1
sI491
I1
sI492
I1
sI498
I1
sI66035
I1
sI66036
I1
sI66037
I1
sI509
I1
sI284076
I1
sI197135
I1
sI131601
I1
sI535
I1
sI11012
I1
sI540
I1
sI545
I1
sI546
I1
sI547
I1
sI549
I1
sI164395
I1
sI575
I1
sI576
I1
sI577
I1
sI338699
I1
sI580
I1
sI581
I1
sI585
I1
sI586
I1
sI594
I1
sI596
I1
sI602
I1
sI153020
I1
sI622
I1
sI627
I1
sI631
I1
sI51304
I1
sI634
I1
sI636
I1
sI637
I1
sI639
I1
sI640
I1
sI641
I1
sI646
I1
sI649
I1
sI197258
I1
sI653
I1
sI656
I1
sI662
I1
sI672
I1
sI676
I1
sI682
I1
sI683
I1
sI686
I1
sI197320
I1
sI197322
I1
sI717
I1
sI727
I1
sI729
I1
sI732
I1
sI744
I1
sI745
I1
sI197358
I1
sI752
I1
sI753
I1
sI755
I1
sI762
I1
sI763
I1
sI765
I1
sI767
I1
sI773
I1
sI774
I1
sI775
I1
sI776
I1
sI777
I1
sI778
I1
sI780
I1
sI781
I1
sI782
I1
sI783
I1
sI784
I1
sI785
I1
sI790
I1
sI196740
I1
sI800
I1
sI131873
I1
sI813
I1
sI816
I1
sI817
I1
sI818
I1
sI825
I1
sI826
I1
sI164668
I1
sI831
I1
sI832
I1
sI833
I1
sI834
I1
sI838
I1
sI54753
I1
sI840
I1
sI841
I1
sI842
I1
sI843
I1
sI846
I1
sI858
I1
sI860
I1
sI861
I1
sI862
I1
sI863
I1
sI864
I1
sI865
I1
sI868
I1
sI875
I1
sI883
I1
sI887
I1
sI892
I1
sI131965
I1
sI896
I1
sI898
I1
sI899
I1
sI902
I1
sI905
I1
sI910
I1
sI913
I1
sI919
I1
sI923
I1
sI926
I1
sI132001
I1
sI930
I1
sI932
I1
sI933
I1
sI939
I1
sI940
I1
sI942
I1
sI943
I1
sI945
I1
sI946
I1
sI948
I1
sI951
I1
sI953
I1
sI955
I1
sI957
I1
sI958
I1
sI960
I1
sI961
I1
sI962
I1
sI971
I1
sI972
I1
sI976
I1
sI984
I1
sI987
I1
sI989
I1
sI993
I1
sI994
I1
sI995
I1
sI996
I1
sI999
I1
sI1000
I1
sI1001
I1
sI1012
I1
sI1014
I1
sI1016
I1
sI1017
I1
sI1022
I1
sI1024
I1
sI1029
I1
sI1036
I1
sI1040
I1
sI1045
I1
sI1048
I1
sI1062
I1
sI1066
I1
sI1088
I1
sI1089
I1
sI1102
I1
sI1105
I1
sI1107
I1
sI1108
I1
sI27315
I1
sI1111
I1
sI1119
I1
sI1121
I1
sI1124
I1
sI132204
I1
sI1134
I1
sI1135
I1
sI1137
I1
sI1138
I1
sI1139
I1
sI1143
I1
sI1144
I1
sI1147
I1
sI1153
I1
sI132228
I1
sI1159
I1
sI1161
I1
sI147650
I1
sI1175
I1
sI1176
I1
sI1180
I1
sI1181
I1
sI1182
I1
sI1184
I1
sI1196
I1
sI1198
I1
sI1201
I1
sI1207
I1
sI1211
I1
sI1212
I1
sI165055
I1
sI1232
I1
sI165082
I1
sI1244
I1
sI132320
I1
sI132321
I1
sI1258
I1
sI1261
I1
sI1265
I1
sI1272
I1
sI1277
I1
sI1280
I1
sI1285
I1
sI1286
I1
sI1287
I1
sI1288
I1
sI1294
I1
sI1297
I1
sI1298
I1
sI1301
I1
sI1302
I1
sI1305
I1
sI1307
I1
sI1310
I1
sI1327
I1
sI165186
I1
sI1353
I1
sI1355
I1
sI1356
I1
sI120376
I1
sI1373
I1
sI1374
I1
sI1378
I1
sI54843
I1
sI1384
I1
sI1385
I1
sI1386
I1
sI1387
I1
sI1390
I1
sI1394
I1
sI1395
I1
sI1400
I1
sI1432
I1
sI1435
I1
sI1438
I1
sI1439
I1
sI1440
I1
sI1441
I1
sI1446
I1
sI1452
I1
sI1453
I1
sI1455
I1
sI1456
I1
sI1459
I1
sI1468
I1
sI1482
I1
sI1487
I1
sI1488
I1
sI1489
I1
sI1491
I1
sI1495
I1
sI1496
I1
sI1497
I1
sI1500
I1
sI1501
I1
sI84067
I1
sI1510
I1
sI1512
I1
sI64427
I1
sI1523
I1
sI1525
I1
sI1534
I1
sI132612
I1
sI1555
I1
sI1565
I1
sI1572
I1
sI1577
I1
sI1579
I1
sI1580
I1
sI1584
I1
sI132660
I1
sI54878
I1
sI132671
I1
sI1602
I1
sI1604
I1
sI1606
I1
sI1607
I1
sI1609
I1
sI1616
I1
sI1622
I1
sI1627
I1
sI1630
I1
sI1634
I1
sI1635
I1
sI1636
I1
sI1638
I1
sI1639
I1
sI1641
I1
sI1644
I1
sI1654
I1
sI1659
I1
sI1663
I1
sI1666
I1
sI1677
I1
sI165530
I1
sI54897
I1
sI165545
I1
sI1716
I1
sI1723
I1
sI1725
I1
sI1728
I1
sI1729
I1
sI1733
I1
sI1734
I1
sI1738
I1
sI1739
I1
sI1740
I1
sI1741
I1
sI1742
I1
sI1755
I1
sI1758
I1
sI1759
I1
sI1760
I1
sI1761
I1
sI1763
I1
sI1773
I1
sI1780
I1
sI1781
I1
sI1783
I1
sI1785
I1
sI1786
I1
sI1787
I1
sI1788
I1
sI1789
I1
sI165631
I1
sI132864
I1
sI1793
I1
sI1794
I1
sI1795
I1
sI1796
I1
sI1798
I1
sI1802
I1
sI1804
I1
sI1806
I1
sI1807
I1
sI132884
I1
sI1819
I1
sI1821
I1
sI1827
I1
sI1837
I1
sI1838
I1
sI1841
I1
sI1842
I1
sI100271927
I1
sI55709
I1
sI1854
I1
sI1855
I1
sI5771
I1
sI1870
I1
sI1871
I1
sI1876
I1
sI132949
I1
sI1879
I1
sI132954
I1
sI1889
I1
sI1894
I1
sI1896
I1
sI1908
I1
sI1911
I1
sI1912
I1
sI1936
I1
sI1939
I1
sI133015
I1
sI1946
I1
sI1950
I1
sI1953
I1
sI1956
I1
sI1960
I1
sI1969
I1
sI54622
I1
sI1977
I1
sI1981
I1
sI165829
I1
sI1993
I1
sI1996
I1
sI1998
I1
sI2001
I1
sI54947
I1
sI2006
I1
sI2009
I1
sI2011
I1
sI2015
I1
sI2017
I1
sI2029
I1
sI2030
I1
sI2035
I1
sI2036
I1
sI2037
I1
sI2038
I1
sI2039
I1
sI2040
I1
sI2042
I1
sI2044
I1
sI2045
I1
sI2046
I1
sI2047
I1
sI2048
I1
sI2051
I1
sI2053
I1
sI2054
I1
sI2060
I1
sI2064
I1
sI2066
I1
sI2067
I1
sI2068
I1
sI2070
I1
sI2071
I1
sI2072
I1
sI2078
I1
sI2099
I1
sI2100
I1
sI2103
I1
sI2104
I1
sI2107
I1
sI2113
I1
sI2115
I1
sI2116
I1
sI2118
I1
sI2120
I1
sI2121
I1
sI2122
I1
sI2130
I1
sI2132
I1
sI2135
I1
sI2138
I1
sI2139
I1
sI2140
I1
sI2145
I1
sI2146
I1
sI2155
I1
sI284349
I1
sI2160
I1
sI2165
I1
sI2173
I1
sI2175
I1
sI2176
I1
sI2178
I1
sI2180
I1
sI284353
I1
sI2185
I1
sI2186
I1
sI2191
I1
sI2192
I1
sI2204
I1
sI2206
I1
sI2210
I1
sI2212
I1
sI2213
I1
sI2214
I1
sI2215
I1
sI2218
I1
sI2220
I1
sI2222
I1
sI54985
I1
sI2232
I1
sI2235
I1
sI2241
I1
sI2242
I1
sI2246
I1
sI2253
I1
sI2257
I1
sI2258
I1
sI2259
I1
sI2260
I1
sI2261
I1
sI2262
I1
sI2263
I1
sI2264
I1
sI2268
I1
sI2272
I1
sI2273
I1
sI2281
I1
sI2287
I1
sI2305
I1
sI2309
I1
sI133383
I1
sI2313
I1
sI2314
I1
sI2316
I1
sI2317
I1
sI2319
I1
sI2321
I1
sI2322
I1
sI2323
I1
sI2324
I1
sI2326
I1
sI2329
I1
sI2330
I1
sI2332
I1
sI2334
I1
sI2335
I1
sI2346
I1
sI493869
I1
sI2355
I1
sI2356
I1
sI133482
I1
sI133522
I1
sI153328
I1
sI2475
I1
sI55027
I1
sI2491
I1
sI2492
I1
sI2494
I1
sI166336
I1
sI100141515
I1
sI133584
I1
sI2515
I1
sI2517
I1
sI2521
I1
sI2530
I1
sI2533
I1
sI2534
I1
sI166378
I1
sI2549
I1
sI2550
I1
sI2553
I1
sI2555
I1
sI2562
I1
sI2564
I1
sI2567
I1
sI2580
I1
sI2581
I1
sI2583
I1
sI2585
I1
sI2588
I1
sI2590
I1
sI199221
I1
sI133686
I1
sI199223
I1
sI133688
I1
sI2620
I1
sI2622
I1
sI2635
I1
sI2639
I1
sI2642
I1
sI2643
I1
sI2645
I1
sI2648
I1
sI2649
I1
sI2651
I1
sI444
I1
sI2668
I1
sI2670
I1
sI2673
I1
sI2677
I1
sI2686
I1
sI2687
I1
sI2690
I1
sI2696
I1
sI55064
I1
sI2710
I1
sI116841
I1
sI2719
I1
sI2720
I1
sI2730
I1
sI2733
I1
sI2735
I1
sI2736
I1
sI2741
I1
sI2742
I1
sI2744
I1
sI2762
I1
sI2768
I1
sI2771
I1
sI2774
I1
sI2778
I1
sI2801
I1
sI133874
I1
sI2803
I1
sI166647
I1
sI2813
I1
sI2821
I1
sI2822
I1
sI2823
I1
sI2824
I1
sI2833
I1
sI2868
I1
sI2870
I1
sI2873
I1
sI2886
I1
sI2887
I1
sI2888
I1
sI2889
I1
sI2890
I1
sI2891
I1
sI2893
I1
sI2895
I1
sI2897
I1
sI2898
I1
sI2900
I1
sI2901
I1
sI2902
I1
sI2903
I1
sI2905
I1
sI2908
I1
sI2911
I1
sI2912
I1
sI2914
I1
sI2917
I1
sI2918
I1
sI2922
I1
sI2932
I1
sI2934
I1
sI2936
I1
sI2948
I1
sI494470
I1
sI2952
I1
sI166793
I1
sI2954
I1
sI2956
I1
sI2963
I1
sI2967
I1
sI2969
I1
sI2972
I1
sI2976
I1
sI2983
I1
sI166824
I1
sI2987
I1
sI2990
I1
sI2992
I1
sI494513
I1
sI2994
I1
sI2995
I1
sI2999
I1
sI501
I1
sI166863
I1
sI3029
I1
sI3032
I1
sI3034
I1
sI3035
I1
sI3054
I1
sI3055
I1
sI3067
I1
sI3068
I1
sI3070
I1
sI134145
I1
sI3077
I1
sI3080
I1
sI3081
I1
sI3082
I1
sI3084
I1
sI3092
I1
sI3093
I1
sI3096
I1
sI3098
I1
sI3099
I1
sI3104
I1
sI199713
I1
sI3120
I1
sI166968
I1
sI3131
I1
sI3134
I1
sI166979
I1
sI3140
I1
sI3145
I1
sI134218
I1
sI3156
I1
sI3161
I1
sI3164
I1
sI3172
I1
sI3176
I1
sI3177
I1
sI199786
I1
sI3184
I1
sI3187
I1
sI3189
I1
sI3190
I1
sI3191
I1
sI134265
I1
sI3195
I1
sI3213
I1
sI6001
I1
sI3248
I1
sI199857
I1
sI7746
I1
sI3257
I1
sI199870
I1
sI3267
I1
sI3268
I1
sI3274
I1
sI3275
I1
sI3276
I1
sI134359
I1
sI3292
I1
sI3293
I1
sI3295
I1
sI3297
I1
sI199920
I1
sI167153
I1
sI3321
I1
sI3340
I1
sI199953
I1
sI134429
I1
sI3360
I1
sI153478
I1
sI3371
I1
sI3373
I1
sI3382
I1
sI3385
I1
sI200010
I1
sI200014
I1
sI3416
I1
sI3420
I1
sI3422
I1
sI388325
I1
sI3426
I1
sI200035
I1
sI3428
I1
sI3430
I1
sI3431
I1
sI134526
I1
sI3460
I1
sI55763
I1
sI200081
I1
sI3475
I1
sI3479
I1
sI3480
I1
sI3508
I1
sI3516
I1
sI200150
I1
sI3547
I1
sI3551
I1
sI3554
I1
sI3556
I1
sI3557
I1
sI200172
I1
sI134637
I1
sI3566
I1
sI3568
I1
sI3570
I1
sI3572
I1
sI3574
I1
sI200186
I1
sI3581
I1
sI3594
I1
sI3595
I1
sI3597
I1
sI3601
I1
sI3603
I1
sI3609
I1
sI3611
I1
sI3614
I1
sI3615
I1
sI3619
I1
sI3621
I1
sI3631
I1
sI3632
I1
sI3633
I1
sI3636
I1
sI3638
I1
sI3643
I1
sI3652
I1
sI3654
I1
sI3655
I1
sI134728
I1
sI3658
I1
sI3661
I1
sI3663
I1
sI3665
I1
sI3669
I1
sI3679
I1
sI3681
I1
sI3682
I1
sI3683
I1
sI3684
I1
sI3687
I1
sI3691
I1
sI3693
I1
sI3694
I1
sI3696
I1
sI3704
I1
sI3705
I1
sI200316
I1
sI3709
I1
sI3712
I1
sI167555
I1
sI3718
I1
sI3720
I1
sI3747
I1
sI3749
I1
sI3752
I1
sI3757
I1
sI3760
I1
sI200373
I1
sI3776
I1
sI3778
I1
sI3780
I1
sI3781
I1
sI3783
I1
sI3785
I1
sI3786
I1
sI200403
I1
sI3796
I1
sI23040
I1
sI3801
I1
sI159013
I1
sI3812
I1
sI3815
I1
sI200424
I1
sI3818
I1
sI3824
I1
sI3833
I1
sI3841
I1
sI3842
I1
sI3845
I1
sI134957
I1
sI23043
I1
sI3895
I1
sI3899
I1
sI3903
I1
sI3933
I1
sI3939
I1
sI3949
I1
sI3953
I1
sI3955
I1
sI3964
I1
sI3965
I1
sI200576
I1
sI153579
I1
sI3973
I1
sI3978
I1
sI3980
I1
sI3981
I1
sI3983
I1
sI3987
I1
sI3990
I1
sI3991
I1
sI3993
I1
sI3995
I1
sI3996
I1
sI4000
I1
sI284656
I1
sI4004
I1
sI4008
I1
sI4025
I1
sI4026
I1
sI4038
I1
sI135112
I1
sI4041
I1
sI4045
I1
sI4047
I1
sI4048
I1
sI4051
I1
sI4052
I1
sI4054
I1
sI4055
I1
sI4057
I1
sI4058
I1
sI4063
I1
sI135138
I1
sI4067
I1
sI4077
I1
sI4087
I1
sI4088
I1
sI4092
I1
sI4093
I1
sI55297
I1
sI4110
I1
sI4117
I1
sI4118
I1
sI200728
I1
sI4121
I1
sI4122
I1
sI4123
I1
sI4125
I1
sI200734
I1
sI4133
I1
sI4134
I1
sI4135
I1
sI4137
I1
sI4139
I1
sI4140
I1
sI284680
I1
sI4147
I1
sI4149
I1
sI4150
I1
sI4152
I1
sI4154
I1
sI4155
I1
sI135228
I1
sI4162
I1
sI4163
I1
sI4168
I1
sI135250
I1
sI4179
I1
sI4185
I1
sI4188
I1
sI4190
I1
sI4193
I1
sI4194
I1
sI4201
I1
sI200810
I1
sI4204
I1
sI4205
I1
sI4208
I1
sI4209
I1
sI4211
I1
sI4212
I1
sI4215
I1
sI4216
I1
sI4217
I1
sI4221
I1
sI4222
I1
sI4225
I1
sI4232
I1
sI4233
I1
sI4234
I1
sI200844
I1
sI4240
I1
sI4241
I1
sI168090
I1
sI4253
I1
sI4257
I1
sI4261
I1
sI4267
I1
sI200879
I1
sI4281
I1
sI4286
I1
sI4287
I1
sI4289
I1
sI4291
I1
sI4292
I1
sI4293
I1
sI4294
I1
sI4298
I1
sI4299
I1
sI4300
I1
sI200909
I1
sI4302
I1
sI4306
I1
sI4308
I1
sI4317
I1
sI4327
I1
sI4331
I1
sI200942
I1
sI4337
I1
sI4340
I1
sI4345
I1
sI4351
I1
sI4354
I1
sI4355
I1
sI4356
I1
sI4357
I1
sI4358
I1
sI4361
I1
sI4363
I1
sI4430
I1
sI4436
I1
sI4440
I1
sI4478
I1
sI4482
I1
sI266629
I1
sI4486
I1
sI164592
I1
sI4524
I1
sI201134
I1
sI4528
I1
sI4534
I1
sI4542
I1
sI4548
I1
sI168391
I1
sI201163
I1
sI201176
I1
sI135644
I1
sI201181
I1
sI4582
I1
sI201191
I1
sI4591
I1
sI4593
I1
sI4595
I1
sI4597
I1
sI4599
I1
sI4602
I1
sI4603
I1
sI4604
I1
sI4615
I1
sI4628
I1
sI4629
I1
sI4638
I1
sI4642
I1
sI4644
I1
sI201254
I1
sI4647
I1
sI4648
I1
sI4649
I1
sI4651
I1
sI201266
I1
sI4659
I1
sI4660
I1
sI4666
I1
sI4669
I1
sI4670
I1
sI4678
I1
sI4682
I1
sI4683
I1
sI201292
I1
sI4685
I1
sI201294
I1
sI4688
I1
sI201299
I1
sI201305
I1
sI4698
I1
sI168544
I1
sI4705
I1
sI4715
I1
sI4719
I1
sI4731
I1
sI4734
I1
sI4735
I1
sI4739
I1
sI4745
I1
sI4750
I1
sI4751
I1
sI4753
I1
sI4756
I1
sI4763
I1
sI4771
I1
sI4772
I1
sI4773
I1
sI4774
I1
sI4776
I1
sI4779
I1
sI4780
I1
sI4781
I1
sI4782
I1
sI4784
I1
sI4790
I1
sI4791
I1
sI4793
I1
sI4795
I1
sI4796
I1
sI4798
I1
sI4802
I1
sI388555
I1
sI4810
I1
sI4817
I1
sI4820
I1
sI168667
I1
sI4829
I1
sI4832
I1
sI4833
I1
sI4839
I1
sI4843
I1
sI4846
I1
sI201456
I1
sI4849
I1
sI4850
I1
sI4853
I1
sI4857
I1
sI4861
I1
sI4862
I1
sI4863
I1
sI4864
I1
sI4867
I1
sI267012
I1
sI4869
I1
sI4882
I1
sI4883
I1
sI4891
I1
sI4892
I1
sI201501
I1
sI4897
I1
sI4898
I1
sI4901
I1
sI201514
I1
sI4913
I1
sI4915
I1
sI4916
I1
sI4919
I1
sI4920
I1
sI4925
I1
sI4926
I1
sI4927
I1
sI4928
I1
sI126432
I1
sI4931
I1
sI4938
I1
sI4942
I1
sI4948
I1
sI4952
I1
sI4957
I1
sI4967
I1
sI4968
I1
sI4976
I1
sI4978
I1
sI4983
I1
sI4987
I1
sI4988
I1
sI4998
I1
sI5002
I1
sI5003
I1
sI6296
I1
sI201627
I1
sI5023
I1
sI5024
I1
sI5025
I1
sI5026
I1
sI5027
I1
sI5046
I1
sI5047
I1
sI5048
I1
sI5049
I1
sI5051
I1
sI5063
I1
sI5064
I1
sI5066
I1
sI5067
I1
sI5071
I1
sI5073
I1
sI5074
I1
sI5076
I1
sI5077
I1
sI5079
I1
sI5080
I1
sI5087
I1
sI5090
I1
sI5094
I1
sI5095
I1
sI5097
I1
sI5099
I1
sI5101
I1
sI5106
I1
sI5108
I1
sI5110
I1
sI5125
I1
sI5127
I1
sI5129
I1
sI5134
I1
sI5136
I1
sI5137
I1
sI5138
I1
sI5139
I1
sI5140
I1
sI5141
I1
sI5142
I1
sI5143
I1
sI5144
I1
sI5145
I1
sI5151
I1
sI5152
I1
sI5153
I1
sI5154
I1
sI136227
I1
sI5156
I1
sI5158
I1
sI5160
I1
sI5163
I1
sI5168
I1
sI5170
I1
sI5174
I1
sI5175
I1
sI5189
I1
sI5191
I1
sI5192
I1
sI5195
I1
sI169044
I1
sI5207
I1
sI5209
I1
sI5210
I1
sI5211
I1
sI5212
I1
sI5213
I1
sI5214
I1
sI136288
I1
sI5218
I1
sI5229
I1
sI5238
I1
sI5239
I1
sI5241
I1
sI5244
I1
sI5251
I1
sI5252
I1
sI5255
I1
sI5256
I1
sI5257
I1
sI5260
I1
sI5264
I1
sI5269
I1
sI5270
I1
sI5271
I1
sI5273
I1
sI5275
I1
sI5281
I1
sI5283
I1
sI5287
I1
sI5288
I1
sI5291
I1
sI5293
I1
sI5294
I1
sI5295
I1
sI5297
I1
sI5298
I1
sI5305
I1
sI5311
I1
sI5313
I1
sI5315
I1
sI5321
I1
sI169166
I1
sI5328
I1
sI5329
I1
sI5330
I1
sI5331
I1
sI5332
I1
sI5334
I1
sI5335
I1
sI5337
I1
sI5338
I1
sI5345
I1
sI5349
I1
sI5358
I1
sI5359
I1
sI5360
I1
sI201973
I1
sI5368
I1
sI5371
I1
sI5372
I1
sI5378
I1
sI5394
I1
sI5395
I1
sI202018
I1
sI5414
I1
sI5422
I1
sI5423
I1
sI5426
I1
sI5427
I1
sI5429
I1
sI5434
I1
sI5435
I1
sI5437
I1
sI202051
I1
sI5445
I1
sI5450
I1
sI5451
I1
sI5452
I1
sI5460
I1
sI5463
I1
sI5467
I1
sI5468
I1
sI5469
I1
sI5475
I1
sI5493
I1
sI5494
I1
sI5495
I1
sI5498
I1
sI5501
I1
sI5504
I1
sI5510
I1
sI5519
I1
sI5520
I1
sI5521
I1
sI5522
I1
sI5523
I1
sI5524
I1
sI5527
I1
sI5528
I1
sI5530
I1
sI5532
I1
sI5533
I1
sI5537
I1
sI202151
I1
sI5546
I1
sI5558
I1
sI5562
I1
sI5566
I1
sI5567
I1
sI5571
I1
sI5575
I1
sI5576
I1
sI5578
I1
sI5581
I1
sI5583
I1
sI5586
I1
sI5587
I1
sI5588
I1
sI5590
I1
sI5592
I1
sI5593
I1
sI5596
I1
sI5599
I1
sI5601
I1
sI5602
I1
sI5604
I1
sI5605
I1
sI5606
I1
sI5607
I1
sI5608
I1
sI5609
I1
sI5611
I1
sI5618
I1
sI5620
I1
sI5624
I1
sI23101
I1
sI202243
I1
sI5636
I1
sI5641
I1
sI5646
I1
sI5648
I1
sI5651
I1
sI132014
I1
sI497190
I1
sI5672
I1
sI5678
I1
sI5693
I1
sI5710
I1
sI5711
I1
sI5720
I1
sI431705
I1
sI5725
I1
sI5727
I1
sI5733
I1
sI5734
I1
sI5742
I1
sI5745
I1
sI5747
I1
sI55572
I1
sI5754
I1
sI5757
I1
sI202374
I1
sI169611
I1
sI5774
I1
sI5775
I1
sI5777
I1
sI5778
I1
sI5781
I1
sI5782
I1
sI5783
I1
sI5787
I1
sI5788
I1
sI5789
I1
sI5791
I1
sI5792
I1
sI5793
I1
sI5794
I1
sI5795
I1
sI5796
I1
sI5797
I1
sI5798
I1
sI5799
I1
sI5800
I1
sI5801
I1
sI5802
I1
sI5803
I1
sI284958
I1
sI5817
I1
sI5825
I1
sI5826
I1
sI5829
I1
sI5830
I1
sI5831
I1
sI5832
I1
sI5833
I1
sI5858
I1
sI5863
I1
sI5866
I1
sI55591
I1
sI5870
I1
sI5871
I1
sI5883
I1
sI5884
I1
sI5888
I1
sI5889
I1
sI5890
I1
sI5891
I1
sI202500
I1
sI5893
I1
sI5894
I1
sI55596
I1
sI5899
I1
sI5900
I1
sI5901
I1
sI5902
I1
sI5905
I1
sI5908
I1
sI5909
I1
sI5910
I1
sI5913
I1
sI5914
I1
sI5915
I1
sI5916
I1
sI5921
I1
sI5922
I1
sI5923
I1
sI5924
I1
sI5926
I1
sI5929
I1
sI5932
I1
sI5933
I1
sI5934
I1
sI5937
I1
sI5939
I1
sI202559
I1
sI169792
I1
sI5962
I1
sI55607
I1
sI5966
I1
sI5970
I1
sI5976
I1
sI5977
I1
sI5981
I1
sI5982
I1
sI5983
I1
sI5985
I1
sI5989
I1
sI5990
I1
sI5991
I1
sI5998
I1
sI5999
I1
sI6000
I1
sI169841
I1
sI6002
I1
sI6006
I1
sI6007
I1
sI6013
I1
sI55616
I1
sI6018
I1
sI317761
I1
sI22852
I1
sI6046
I1
sI22854
I1
sI22859
I1
sI6091
I1
sI6092
I1
sI6095
I1
sI6098
I1
sI55630
I1
sI6103
I1
sI6120
I1
sI55634
I1
sI6134
I1
sI151194
I1
sI6150
I1
sI6158
I1
sI6185
I1
sI6196
I1
sI6197
I1
sI6198
I1
sI56945
I1
sI22881
I1
sI6229
I1
sI6239
I1
sI6240
I1
sI6242
I1
sI6249
I1
sI6252
I1
sI6257
I1
sI6272
I1
sI6276
I1
sI6279
I1
sI100505741
I1
sI137362
I1
sI6293
I1
sI6294
I1
sI6295
I1
sI399512
I1
sI6297
I1
sI6304
I1
sI6305
I1
sI202915
I1
sI22898
I1
sI6322
I1
sI6323
I1
sI6326
I1
sI6328
I1
sI22900
I1
sI6331
I1
sI6334
I1
sI6335
I1
sI6336
I1
sI6338
I1
sI6339
I1
sI6342
I1
sI6344
I1
sI6382
I1
sI55860
I1
sI6386
I1
sI6387
I1
sI6389
I1
sI137695
I1
sI6391
I1
sI6392
I1
sI55679
I1
sI6396
I1
sI6400
I1
sI6405
I1
sI6416
I1
sI6418
I1
sI6419
I1
sI137492
I1
sI6430
I1
sI6432
I1
sI6433
I1
sI6442
I1
sI55687
I1
sI6444
I1
sI203054
I1
sI6448
I1
sI6450
I1
sI6453
I1
sI203062
I1
sI6455
I1
sI6457
I1
sI203068
I1
sI6462
I1
sI6464
I1
sI203074
I1
sI121227
I1
sI6468
I1
sI6470
I1
sI6472
I1
sI6474
I1
sI399693
I1
sI6484
I1
sI6487
I1
sI6490
I1
sI6491
I1
sI6493
I1
sI203102
I1
sI6497
I1
sI6502
I1
sI6503
I1
sI6504
I1
sI6505
I1
sI6506
I1
sI6507
I1
sI6508
I1
sI6510
I1
sI6512
I1
sI6514
I1
sI6520
I1
sI6521
I1
sI6522
I1
sI6525
I1
sI22933
I1
sI6528
I1
sI132160
I1
sI6530
I1
sI170371
I1
sI6533
I1
sI6534
I1
sI6536
I1
sI6538
I1
sI6539
I1
sI6540
I1
sI6542
I1
sI55704
I1
sI6546
I1
sI6547
I1
sI6553
I1
sI6556
I1
sI6558
I1
sI6559
I1
sI6560
I1
sI6561
I1
sI6563
I1
sI6565
I1
sI6568
I1
sI6569
I1
sI6570
I1
sI6573
I1
sI6575
I1
sI6578
I1
sI6579
I1
sI6580
I1
sI6581
I1
sI6584
I1
sI203197
I1
sI6594
I1
sI6595
I1
sI6596
I1
sI6597
I1
sI6598
I1
sI6601
I1
sI6602
I1
sI6604
I1
sI6606
I1
sI6607
I1
sI6609
I1
sI137682
I1
sI6611
I1
sI6614
I1
sI55716
I1
sI6620
I1
sI55717
I1
sI6625
I1
sI100506084
I1
sI203238
I1
sI6637
I1
sI6640
I1
sI6642
I1
sI6646
I1
sI6648
I1
sI6650
I1
sI6651
I1
sI203260
I1
sI6653
I1
sI6654
I1
sI6660
I1
sI6668
I1
sI6671
I1
sI6672
I1
sI6674
I1
sI6676
I1
sI203286
I1
sI6683
I1
sI6687
I1
sI6689
I1
sI6691
I1
sI6692
I1
sI399909
I1
sI6696
I1
sI6708
I1
sI6709
I1
sI6710
I1
sI6712
I1
sI55732
I1
sI6717
I1
sI203328
I1
sI6721
I1
sI6728
I1
sI6729
I1
sI6733
I1
sI6738
I1
sI6744
I1
sI6748
I1
sI55738
I1
sI6760
I1
sI399979
I1
sI6764
I1
sI6769
I1
sI6773
I1
sI6774
I1
sI6776
I1
sI6778
I1
sI6780
I1
sI170622
I1
sI22976
I1
sI6787
I1
sI6788
I1
sI6789
I1
sI6794
I1
sI137868
I1
sI6809
I1
sI6810
I1
sI6811
I1
sI6813
I1
sI6815
I1
sI6817
I1
sI137902
I1
sI6832
I1
sI6833
I1
sI6836
I1
sI203447
I1
sI6840
I1
sI6843
I1
sI6845
I1
sI6847
I1
sI170691
I1
sI170692
I1
sI6854
I1
sI6861
I1
sI6863
I1
sI6867
I1
sI6868
I1
sI22990
I1
sI6871
I1
sI6872
I1
sI6873
I1
sI6875
I1
sI6885
I1
sI6892
I1
sI6894
I1
sI6895
I1
sI137970
I1
sI6899
I1
sI6901
I1
sI6904
I1
sI22996
I1
sI285141
I1
sI6913
I1
sI203522
I1
sI203523
I1
sI6916
I1
sI6917
I1
sI6919
I1
sI6920
I1
sI137994
I1
sI6925
I1
sI6928
I1
sI6929
I1
sI6932
I1
sI6934
I1
sI6935
I1
sI6936
I1
sI6938
I1
sI51514
I1
sI6944
I1
sI6945
I1
sI6949
I1
sI6953
I1
sI6954
I1
sI55773
I1
sI55775
I1
sI138046
I1
sI138050
I1
sI55780
I1
sI7006
I1
sI400224
I1
sI7010
I1
sI7013
I1
sI7014
I1
sI7019
I1
sI7020
I1
sI7021
I1
sI7027
I1
sI7029
I1
sI7038
I1
sI7039
I1
sI727936
I1
sI7046
I1
sI7048
I1
sI7050
I1
sI7052
I1
sI7054
I1
sI7059
I1
sI7060
I1
sI727957
I1
sI7066
I1
sI55791
I1
sI7072
I1
sI7073
I1
sI7075
I1
sI23025
I1
sI7082
I1
sI7084
I1
sI7088
I1
sI7089
I1
sI7090
I1
sI7091
I1
sI7092
I1
sI23028
I1
sI7105
I1
sI7106
I1
sI100506564
I1
sI7109
I1
sI7112
I1
sI7113
I1
sI23031
I1
sI170959
I1
sI51520
I1
sI170961
I1
sI7123
I1
sI138199
I1
sI7133
I1
sI7138
I1
sI7139
I1
sI7140
I1
sI7145
I1
sI23037
I1
sI23038
I1
sI7158
I1
sI7161
I1
sI7163
I1
sI7164
I1
sI7165
I1
sI7168
I1
sI7169
I1
sI7170
I1
sI7171
I1
sI7173
I1
sI7174
I1
sI55809
I1
sI171017
I1
sI171019
I1
sI7180
I1
sI7181
I1
sI7182
I1
sI138255
I1
sI171024
I1
sI7187
I1
sI285190
I1
sI55815
I1
sI7216
I1
sI7220
I1
sI7222
I1
sI7223
I1
sI7225
I1
sI7226
I1
sI7227
I1
sI138311
I1
sI55821
I1
sI7248
I1
sI7249
I1
sI203859
I1
sI7253
I1
sI7260
I1
sI7267
I1
sI7275
I1
sI55827
I1
sI7286
I1
sI7288
I1
sI7292
I1
sI7293
I1
sI7294
I1
sI7296
I1
sI7297
I1
sI728194
I1
sI7305
I1
sI7307
I1
sI7311
I1
sI7317
I1
sI7318
I1
sI7323
I1
sI7324
I1
sI7325
I1
sI7332
I1
sI7335
I1
sI7336
I1
sI7337
I1
sI154141
I1
sI7347
I1
sI7355
I1
sI138428
I1
sI7358
I1
sI55840
I1
sI7364
I1
sI7369
I1
sI7378
I1
sI55844
I1
sI7390
I1
sI7392
I1
sI23078
I1
sI728294
I1
sI7401
I1
sI7403
I1
sI7404
I1
sI7405
I1
sI7408
I1
sI7409
I1
sI7410
I1
sI7411
I1
sI170463
I1
sI7422
I1
sI7432
I1
sI7433
I1
sI7434
I1
sI7436
I1
sI7439
I1
sI7443
I1
sI728340
I1
sI7455
I1
sI7458
I1
sI728361
I1
sI7468
I1
sI23091
I1
sI7478
I1
sI7481
I1
sI728378
I1
sI7490
I1
sI55697
I1
sI7499
I1
sI400720
I1
sI7511
I1
sI7514
I1
sI7518
I1
sI55898
I1
sI7535
I1
sI7536
I1
sI55870
I1
sI7543
I1
sI7544
I1
sI728441
I1
sI7549
I1
sI7551
I1
sI7552
I1
sI6720
I1
sI7555
I1
sI7562
I1
sI138639
I1
sI51535
I1
sI7574
I1
sI55876
I1
sI7579
I1
sI7581
I1
sI7586
I1
sI7587
I1
sI7592
I1
sI7593
I1
sI7594
I1
sI7597
I1
sI100507055
I1
sI400823
I1
sI7620
I1
sI7626
I1
sI7627
I1
sI7629
I1
sI7639
I1
sI7644
I1
sI138724
I1
sI23122
I1
sI55892
I1
sI400891
I1
sI7678
I1
sI154197
I1
sI7690
I1
sI7692
I1
sI7694
I1
sI728591
I1
sI7697
I1
sI7699
I1
sI7700
I1
sI728597
I1
sI7702
I1
sI7709
I1
sI7711
I1
sI7716
I1
sI171558
I1
sI728621
I1
sI7732
I1
sI7733
I1
sI400954
I1
sI7739
I1
sI7741
I1
sI7743
I1
sI171586
I1
sI7748
I1
sI7750
I1
sI121441
I1
sI7752
I1
sI7756
I1
sI7770
I1
sI7772
I1
sI23141
I1
sI7776
I1
sI23142
I1
sI23143
I1
sI7799
I1
sI7804
I1
sI7812
I1
sI7813
I1
sI7818
I1
sI7827
I1
sI7849
I1
sI7850
I1
sI7862
I1
sI7869
I1
sI7871
I1
sI7874
I1
sI7881
I1
sI728780
I1
sI401115
I1
sI55930
I1
sI7903
I1
sI219771
I1
sI401124
I1
sI7917
I1
sI401145
I1
sI7936
I1
sI7940
I1
sI7957
I1
sI7965
I1
sI401190
I1
sI7976
I1
sI7988
I1
sI401207
I1
sI7993
I1
sI7994
I1
sI8001
I1
sI8021
I1
sI8022
I1
sI8027
I1
sI8028
I1
sI139105
I1
sI8034
I1
sI8038
I1
sI219793
I1
sI401258
I1
sI8045
I1
sI401262
I1
sI8050
I1
sI23187
I1
sI8061
I1
sI8065
I1
sI23191
I1
sI8076
I1
sI8086
I1
sI8087
I1
sI8091
I1
sI8100
I1
sI8110
I1
sI8120
I1
sI23200
I1
sI148811
I1
sI100507588
I1
sI8140
I1
sI8148
I1
sI55973
I1
sI23207
I1
sI8178
I1
sI8187
I1
sI8193
I1
sI100507650
I1
sI8202
I1
sI8209
I1
sI8218
I1
sI8220
I1
sI8224
I1
sI8226
I1
sI8233
I1
sI23218
I1
sI8239
I1
sI8241
I1
sI8242
I1
sI204851
I1
sI139322
I1
sI401474
I1
sI8273
I1
sI256691
I1
sI401494
I1
sI8284
I1
sI100507747
I1
sI8301
I1
sI23229
I1
sI8312
I1
sI8314
I1
sI8315
I1
sI8318
I1
sI8320
I1
sI23232
I1
sI401541
I1
sI401551
I1
sI401565
I1
sI204962
I1
sI8372
I1
sI8379
I1
sI285386
I1
sI8382
I1
sI8394
I1
sI8396
I1
sI8398
I1
sI8399
I1
sI8406
I1
sI8411
I1
sI8412
I1
sI8425
I1
sI8428
I1
sI8434
I1
sI8435
I1
sI8437
I1
sI8443
I1
sI8449
I1
sI8450
I1
sI8452
I1
sI8453
I1
sI8455
I1
sI8456
I1
sI8458
I1
sI729359
I1
sI8464
I1
sI8468
I1
sI8470
I1
sI8471
I1
sI8476
I1
sI8481
I1
sI8487
I1
sI8495
I1
sI8496
I1
sI8497
I1
sI8498
I1
sI8499
I1
sI8500
I1
sI8501
I1
sI8502
I1
sI8505
I1
sI8509
I1
sI8510
I1
sI8513
I1
sI8514
I1
sI8515
I1
sI8517
I1
sI8518
I1
sI8522
I1
sI56034
I1
sI8526
I1
sI8527
I1
sI8531
I1
sI8533
I1
sI8536
I1
sI8537
I1
sI8539
I1
sI8542
I1
sI8546
I1
sI8548
I1
sI8550
I1
sI8554
I1
sI8555
I1
sI8556
I1
sI8558
I1
sI8566
I1
sI8567
I1
sI8569
I1
sI8570
I1
sI8573
I1
sI8575
I1
sI8601
I1
sI8603
I1
sI8605
I1
sI8607
I1
sI8609
I1
sI8612
I1
sI8615
I1
sI8618
I1
sI8621
I1
sI8622
I1
sI8623
I1
sI8624
I1
sI8625
I1
sI8626
I1
sI8631
I1
sI8635
I1
sI729533
I1
sI8638
I1
sI8639
I1
sI139716
I1
sI8646
I1
sI8647
I1
sI8650
I1
sI8654
I1
sI139728
I1
sI8658
I1
sI8671
I1
sI8672
I1
sI8675
I1
sI8677
I1
sI8678
I1
sI23293
I1
sI23294
I1
sI56063
I1
sI8706
I1
sI8711
I1
sI8714
I1
sI8715
I1
sI8718
I1
sI8721
I1
sI8724
I1
sI8725
I1
sI8726
I1
sI8727
I1
sI8729
I1
sI8731
I1
sI8732
I1
sI8737
I1
sI8738
I1
sI8741
I1
sI139818
I1
sI8751
I1
sI8763
I1
sI8764
I1
sI729665
I1
sI8773
I1
sI8774
I1
sI8776
I1
sI8777
I1
sI8784
I1
sI8785
I1
sI8786
I1
sI8787
I1
sI8792
I1
sI8796
I1
sI8801
I1
sI8803
I1
sI8808
I1
sI8809
I1
sI8813
I1
sI8814
I1
sI8816
I1
sI205428
I1
sI8821
I1
sI8822
I1
sI8824
I1
sI8828
I1
sI8829
I1
sI8832
I1
sI8835
I1
sI8837
I1
sI8838
I1
sI8839
I1
sI8840
I1
sI8842
I1
sI8844
I1
sI50626
I1
sI8848
I1
sI8853
I1
sI8854
I1
sI8858
I1
sI8861
I1
sI8863
I1
sI8867
I1
sI8869
I1
sI8871
I1
sI8874
I1
sI8875
I1
sI8880
I1
sI8881
I1
sI8883
I1
sI8887
I1
sI8890
I1
sI8891
I1
sI8894
I1
sI8897
I1
sI8905
I1
sI8906
I1
sI8907
I1
sI8908
I1
sI8910
I1
sI8911
I1
sI8912
I1
sI8913
I1
sI8915
I1
sI8916
I1
sI8930
I1
sI8938
I1
sI8939
I1
sI8940
I1
sI8943
I1
sI8945
I1
sI205564
I1
sI121643
I1
sI8974
I1
sI8975
I1
sI8986
I1
sI8991
I1
sI8996
I1
sI8997
I1
sI8999
I1
sI9013
I1
sI9014
I1
sI9015
I1
sI9016
I1
sI9024
I1
sI9025
I1
sI9026
I1
sI9028
I1
sI9033
I1
sI9039
I1
sI9043
I1
sI9044
I1
sI9047
I1
sI9050
I1
sI9051
I1
sI9053
I1
sI9055
I1
sI9058
I1
sI9063
I1
sI9064
I1
sI9066
I1
sI9070
I1
sI9071
I1
sI9079
I1
sI9088
I1
sI9094
I1
sI9096
I1
sI729993
I1
sI9098
I1
sI9099
I1
sI9101
I1
sI9104
I1
sI9107
I1
sI9108
I1
sI730005
I1
sI9112
I1
sI9113
I1
sI9117
I1
sI9121
I1
sI9122
I1
sI9125
I1
sI9127
I1
sI9129
I1
sI9131
I1
sI9135
I1
sI9138
I1
sI9139
I1
sI9146
I1
sI9147
I1
sI9148
I1
sI9150
I1
sI9152
I1
sI9153
I1
sI9154
I1
sI9156
I1
sI9162
I1
sI402381
I1
sI9167
I1
sI9169
I1
sI9175
I1
sI9179
I1
sI9180
I1
sI9181
I1
sI9185
I1
sI9187
I1
sI9188
I1
sI9196
I1
sI9197
I1
sI402415
I1
sI9201
I1
sI9202
I1
sI9205
I1
sI9208
I1
sI9209
I1
sI9211
I1
sI9212
I1
sI9214
I1
sI9215
I1
sI730112
I1
sI9218
I1
sI9221
I1
sI9223
I1
sI9229
I1
sI9231
I1
sI9235
I1
sI1540
I1
sI9244
I1
sI23386
I1
sI23387
I1
sI9252
I1
sI9254
I1
sI9256
I1
sI9260
I1
sI9261
I1
sI285533
I1
sI9266
I1
sI9267
I1
sI9270
I1
sI9271
I1
sI9274
I1
sI9277
I1
sI203259
I1
sI9289
I1
sI9295
I1
sI23396
I1
sI56165
I1
sI9315
I1
sI9317
I1
sI9320
I1
sI9321
I1
sI9322
I1
sI9324
I1
sI9326
I1
sI9328
I1
sI9331
I1
sI9332
I1
sI9337
I1
sI9340
I1
sI9344
I1
sI9348
I1
sI9351
I1
sI9352
I1
sI9353
I1
sI9356
I1
sI9358
I1
sI9361
I1
sI9364
I1
sI9369
I1
sI9373
I1
sI9378
I1
sI9379
I1
sI9380
I1
sI9381
I1
sI9388
I1
sI9389
I1
sI140462
I1
sI140469
I1
sI9399
I1
sI9400
I1
sI9401
I1
sI9404
I1
sI9413
I1
sI9414
I1
sI9424
I1
sI9436
I1
sI9437
I1
sI9439
I1
sI9442
I1
sI9444
I1
sI9448
I1
sI9455
I1
sI9456
I1
sI9459
I1
sI9462
I1
sI9463
I1
sI9465
I1
sI9467
I1
sI9468
I1
sI9470
I1
sI9472
I1
sI9473
I1
sI9474
I1
sI9475
I1
sI9478
I1
sI9481
I1
sI9487
I1
sI9488
I1
sI9489
I1
sI9491
I1
sI9493
I1
sI9496
I1
sI9497
I1
sI9498
I1
sI9499
I1
sI9501
I1
sI140578
I1
sI9514
I1
sI9515
I1
sI9520
I1
sI9524
I1
sI9526
I1
sI9527
I1
sI9528
I1
sI9534
I1
sI9537
I1
sI140612
I1
sI9542
I1
sI9543
I1
sI9551
I1
sI9555
I1
sI9557
I1
sI9559
I1
sI9560
I1
sI9562
I1
sI9563
I1
sI9564
I1
sI9567
I1
sI9569
I1
sI9570
I1
sI9576
I1
sI9577
I1
sI9578
I1
sI9581
I1
sI9584
I1
sI9586
I1
sI9589
I1
sI9590
I1
sI4684
I1
sI9604
I1
sI9605
I1
sI9609
I1
sI9610
I1
sI9611
I1
sI9615
I1
sI140688
I1
sI9617
I1
sI140690
I1
sI140691
I1
sI9622
I1
sI9625
I1
sI9627
I1
sI140700
I1
sI9631
I1
sI9632
I1
sI9633
I1
sI140706
I1
sI9639
I1
sI9641
I1
sI9644
I1
sI9645
I1
sI9648
I1
sI9649
I1
sI9650
I1
sI9651
I1
sI9654
I1
sI9656
I1
sI9657
I1
sI9659
I1
sI140732
I1
sI140733
I1
sI9662
I1
sI9665
I1
sI140739
I1
sI9672
I1
sI9677
I1
sI9678
I1
sI9681
I1
sI9685
I1
sI9686
I1
sI9687
I1
sI9689
I1
sI9692
I1
sI9693
I1
sI140766
I1
sI9696
I1
sI9699
I1
sI9701
I1
sI9702
I1
sI9705
I1
sI9706
I1
sI9711
I1
sI9712
I1
sI9715
I1
sI9719
I1
sI9720
I1
sI9725
I1
sI9727
I1
sI206338
I1
sI140803
I1
sI9732
I1
sI9734
I1
sI140807
I1
sI9742
I1
sI9743
I1
sI9745
I1
sI9747
I1
sI9749
I1
sI9750
I1
sI9751
I1
sI9754
I1
sI9757
I1
sI9758
I1
sI9759
I1
sI9762
I1
sI9765
I1
sI9771
I1
sI9772
I1
sI23474
I1
sI9774
I1
sI9776
I1
sI9777
I1
sI9778
I1
sI9779
I1
sI9781
I1
sI9784
I1
sI9786
I1
sI9788
I1
sI9790
I1
sI9798
I1
sI9802
I1
sI140876
I1
sI9810
I1
sI9811
I1
sI9812
I1
sI140885
I1
sI9814
I1
sI9815
I1
sI140890
I1
sI9820
I1
sI9821
I1
sI140894
I1
sI9826
I1
sI9830
I1
sI9832
I1
sI9833
I1
sI9839
I1
sI9842
I1
sI9843
I1
sI9847
I1
sI9848
I1
sI9851
I1
sI9854
I1
sI9855
I1
sI9856
I1
sI9859
I1
sI9860
I1
sI9861
I1
sI9862
I1
sI9863
I1
sI9866
I1
sI9869
I1
sI9870
I1
sI9874
I1
sI9877
I1
sI9881
I1
sI9882
I1
sI9883
I1
sI9884
I1
sI9885
I1
sI9886
I1
sI9887
I1
sI9892
I1
sI9896
I1
sI9898
I1
sI9899
I1
sI9901
I1
sI9905
I1
sI9909
I1
sI9910
I1
sI9911
I1
sI9912
I1
sI9914
I1
sI9919
I1
sI9921
I1
sI9922
I1
sI9928
I1
sI23500
I1
sI9931
I1
sI9938
I1
sI9940
I1
sI9941
I1
sI9942
I1
sI9943
I1
sI9958
I1
sI9960
I1
sI9962
I1
sI9963
I1
sI9969
I1
sI9970
I1
sI9971
I1
sI9972
I1
sI9984
I1
sI9988
I1
sI9989
I1
sI9990
I1
sI9991
I1
sI9993
I1
sI10000
I1
sI10001
I1
sI10003
I1
sI10004
I1
sI10006
I1
sI10010
I1
sI10013
I1
sI10014
I1
sI10015
I1
sI10016
I1
sI10018
I1
sI10019
I1
sI10020
I1
sI10024
I1
sI10036
I1
sI10038
I1
sI10042
I1
sI10043
I1
sI10044
I1
sI10045
I1
sI10046
I1
sI10048
I1
sI10049
I1
sI10050
I1
sI10051
I1
sI10054
I1
sI10055
I1
sI10057
I1
sI10059
I1
sI10060
I1
sI10062
I1
sI10067
I1
sI10068
I1
sI10076
I1
sI10077
I1
sI10082
I1
sI10083
I1
sI10084
I1
sI10087
I1
sI285671
I1
sI10099
I1
sI10100
I1
sI10101
I1
sI10102
I1
sI10107
I1
sI10113
I1
sI10125
I1
sI10127
I1
sI10128
I1
sI10130
I1
sI10131
I1
sI10138
I1
sI10139
I1
sI10144
I1
sI10149
I1
sI10150
I1
sI10152
I1
sI10154
I1
sI10156
I1
sI10160
I1
sI10165
I1
sI10169
I1
sI10171
I1
sI10174
I1
sI7157
I1
sI10178
I1
sI10180
I1
sI10181
I1
sI337867
I1
sI10188
I1
sI10195
I1
sI10196
I1
sI10197
I1
sI10198
I1
sI10201
I1
sI10202
I1
sI10207
I1
sI10208
I1
sI10211
I1
sI10216
I1
sI10217
I1
sI10225
I1
sI10228
I1
sI10232
I1
sI10235
I1
sI10236
I1
sI10237
I1
sI10241
I1
sI10243
I1
sI10244
I1
sI10246
I1
sI10250
I1
sI10256
I1
sI10257
I1
sI10260
I1
sI10274
I1
sI10277
I1
sI10278
I1
sI10279
I1
sI10280
I1
sI10283
I1
sI10288
I1
sI10295
I1
sI10296
I1
sI10297
I1
sI10299
I1
sI10300
I1
sI10307
I1
sI10308
I1
sI10311
I1
sI10312
I1
sI10313
I1
sI10316
I1
sI10318
I1
sI10320
I1
sI731220
I1
sI10325
I1
sI10326
I1
sI10328
I1
sI171023
I1
sI10332
I1
sI10335
I1
sI10345
I1
sI10347
I1
sI10350
I1
sI10351
I1
sI10352
I1
sI10361
I1
sI10367
I1
sI10380
I1
sI10382
I1
sI10385
I1
sI10388
I1
sI10392
I1
sI10393
I1
sI10395
I1
sI10396
I1
sI10397
I1
sI10400
I1
sI10402
I1
sI10404
I1
sI10407
I1
sI10411
I1
sI10412
I1
sI10413
I1
sI10419
I1
sI10420
I1
sI10423
I1
sI10425
I1
sI10426
I1
sI10427
I1
sI10434
I1
sI10439
I1
sI10443
I1
sI10445
I1
sI10450
I1
sI10451
I1
sI10455
I1
sI10457
I1
sI10458
I1
sI10460
I1
sI10461
I1
sI10462
I1
sI10464
I1
sI10468
I1
sI10477
I1
sI10479
I1
sI10484
I1
sI10485
I1
sI10492
I1
sI10494
I1
sI10495
I1
sI10497
I1
sI10499
I1
sI10500
I1
sI10505
I1
sI10509
I1
sI10513
I1
sI10516
I1
sI10518
I1
sI10520
I1
sI10524
I1
sI10526
I1
sI10529
I1
sI10531
I1
sI10533
I1
sI10540
I1
sI10549
I1
sI10556
I1
sI10558
I1
sI10561
I1
sI10565
I1
sI29068
I1
sI23607
I1
sI10574
I1
sI10578
I1
sI10579
I1
sI10580
I1
sI10585
I1
sI10592
I1
sI10595
I1
sI10603
I1
sI10608
I1
sI10611
I1
sI10616
I1
sI10617
I1
sI10618
I1
sI10621
I1
sI10623
I1
sI10625
I1
sI10630
I1
sI10631
I1
sI10642
I1
sI10643
I1
sI10644
I1
sI10645
I1
sI10651
I1
sI10656
I1
sI10658
I1
sI10659
I1
sI10665
I1
sI10667
I1
sI10675
I1
sI10677
I1
sI10681
I1
sI10693
I1
sI10694
I1
sI10695
I1
sI10712
I1
sI10713
I1
sI10717
I1
sI10718
I1
sI10721
I1
sI10723
I1
sI10724
I1
sI10725
I1
sI10726
I1
sI10728
I1
sI10730
I1
sI10732
I1
sI10733
I1
sI10734
I1
sI10739
I1
sI10745
I1
sI22985
I1
sI10758
I1
sI338440
I1
sI10765
I1
sI10767
I1
sI10771
I1
sI10772
I1
sI10776
I1
sI10777
I1
sI10780
I1
sI10781
I1
sI10782
I1
sI10783
I1
sI10785
I1
sI10787
I1
sI10788
I1
sI10795
I1
sI10799
I1
sI10801
I1
sI10802
I1
sI10806
I1
sI10807
I1
sI10808
I1
sI10811
I1
sI10813
I1
sI10840
I1
sI10841
I1
sI10844
I1
sI10846
I1
sI10858
I1
sI10859
I1
sI10863
I1
sI10864
I1
sI10865
I1
sI10869
I1
sI10873
I1
sI10874
I1
sI404093
I1
sI10886
I1
sI10891
I1
sI10893
I1
sI10897
I1
sI10898
I1
sI10900
I1
sI10901
I1
sI10902
I1
sI10903
I1
sI93109
I1
sI10907
I1
sI10908
I1
sI10910
I1
sI10911
I1
sI10913
I1
sI10914
I1
sI10915
I1
sI10919
I1
sI10922
I1
sI10924
I1
sI10926
I1
sI10933
I1
sI10941
I1
sI10942
I1
sI10943
I1
sI10948
I1
sI10953
I1
sI10956
I1
sI338645
I1
sI10966
I1
sI10973
I1
sI10979
I1
sI338661
I1
sI10982
I1
sI10988
I1
sI10989
I1
sI10990
I1
sI10992
I1
sI10998
I1
sI11004
I1
sI11005
I1
sI11006
I1
sI11009
I1
sI11011
I1
sI338692
I1
sI11019
I1
sI11025
I1
sI11027
I1
sI11030
I1
sI11033
I1
sI11043
I1
sI11044
I1
sI11046
I1
sI11047
I1
sI11052
I1
sI11055
I1
sI11056
I1
sI11059
I1
sI11060
I1
sI11061
I1
sI11064
I1
sI11065
I1
sI11069
I1
sI11073
I1
sI11074
I1
sI11077
I1
sI11080
I1
sI43849
I1
sI11083
I1
sI11092
I1
sI11093
I1
sI11094
I1
sI11097
I1
sI11100
I1
sI11101
I1
sI11104
I1
sI11105
I1
sI11107
I1
sI11113
I1
sI11118
I1
sI11119
I1
sI11120
I1
sI11122
I1
sI11123
I1
sI11127
I1
sI11129
I1
sI11131
I1
sI11133
I1
sI11138
I1
sI11143
I1
sI11144
I1
sI11146
I1
sI11147
I1
sI11148
I1
sI11154
I1
sI11155
I1
sI11156
I1
sI11158
I1
sI11159
I1
sI11163
I1
sI11168
I1
sI11169
I1
sI11174
I1
sI11176
I1
sI11177
I1
sI11182
I1
sI11183
I1
sI11184
I1
sI11186
I1
sI11188
I1
sI11189
I1
sI11190
I1
sI11194
I1
sI11196
I1
sI11200
I1
sI11201
I1
sI11202
I1
sI51019
I1
sI11215
I1
sI11234
I1
sI11237
I1
sI11238
I1
sI11245
I1
sI11252
I1
sI11258
I1
sI11259
I1
sI11262
I1
sI1877
I1
sI11267
I1
sI11269
I1
sI11270
I1
sI11273
I1
sI11275
I1
sI11276
I1
sI11278
I1
sI11279
I1
sI11280
I1
sI7343
I1
sI11309
I1
sI11311
I1
sI11314
I1
sI11316
I1
sI11317
I1
sI11321
I1
sI11322
I1
sI11326
I1
sI11328
I1
sI11332
I1
sI11336
I1
sI11338
I1
sI11342
I1
sI11343
I1
sI11346
I1
sI404636
I1
sI339105
I1
sI339123
I1
sI339168
I1
sI339184
I1
sI51085
I1
sI142678
I1
sI142680
I1
sI142685
I1
sI51088
I1
sI285172
I1
sI339318
I1
sI339366
I1
sI83875
I1
sI339416
I1
sI51108
I1
sI339479
I1
sI339487
I1
sI142891
I1
sI339512
I1
sI142910
I1
sI339541
I1
sI7444
I1
sI143098
I1
sI149465
I1
sI83932
I1
sI339766
I1
sI143162
I1
sI339778
I1
sI83937
I1
sI143187
I1
sI51174
I1
sI149483
I1
sI339855
I1
sI143279
I1
sI253260
I1
sI51195
I1
sI339965
I1
sI143379
I1
sI143425
I1
sI340061
I1
sI143471
I1
sI340156
I1
sI400757
I1
sI51232
I1
sI143570
I1
sI340205
I1
sI171389
I1
sI7553
I1
sI285203
I1
sI340252
I1
sI340267
I1
sI143662
I1
sI340273
I1
sI340277
I1
sI143684
I1
sI340351
I1
sI340371
I1
sI340385
I1
sI373156
I1
sI340390
I1
sI340419
I1
sI143872
I1
sI340485
I1
sI143903
I1
sI84060
I1
sI340527
I1
sI51295
I1
sI340547
I1
sI51298
I1
sI51299
I1
sI84070
I1
sI116840
I1
sI84073
I1
sI84074
I1
sI340654
I1
sI144097
I1
sI340706
I1
sI144100
I1
sI121551
I1
sI84102
I1
sI144195
I1
sI340895
I1
sI144321
I1
sI84131
I1
sI7673
I1
sI144402
I1
sI144423
I1
sI728586
I1
sI144453
I1
sI78987
I1
sI78989
I1
sI78991
I1
sI78995
I1
sI78996
I1
sI78997
I1
sI79007
I1
sI79017
I1
sI79018
I1
sI79019
I1
sI79026
I1
sI79027
I1
sI144568
I1
sI79033
I1
sI79034
I1
sI79047
I1
sI79048
I1
sI79053
I1
sI79058
I1
sI79068
I1
sI79083
I1
sI79084
I1
sI79085
I1
sI79087
I1
sI79088
I1
sI79089
I1
sI79090
I1
sI84179
I1
sI79092
I1
sI79096
I1
sI79109
I1
sI79133
I1
sI79137
I1
sI79140
I1
sI79143
I1
sI79145
I1
sI79148
I1
sI79149
I1
sI84190
I1
sI79158
I1
sI79173
I1
sI79174
I1
sI79175
I1
sI144715
I1
sI79184
I1
sI341346
I1
sI51430
I1
sI341350
I1
sI116969
I1
sI728642
I1
sI79258
I1
sI341405
I1
sI79269
I1
sI56904
I1
sI24139
I1
sI116983
I1
sI84216
I1
sI51451
I1
sI116988
I1
sI84223
I1
sI79364
I1
sI79366
I1
sI79368
I1
sI79412
I1
sI79415
I1
sI7775
I1
sI79446
I1
sI7781
I1
sI374378
I1
sI439921
I1
sI133396
I1
sI51477
I1
sI374403
I1
sI374407
I1
sI319089
I1
sI341676
I1
sI23380
I1
sI374462
I1
sI374470
I1
sI79567
I1
sI84259
I1
sI79572
I1
sI79573
I1
sI79574
I1
sI79582
I1
sI79587
I1
sI79591
I1
sI79595
I1
sI440044
I1
sI79598
I1
sI79600
I1
sI55959
I1
sI79607
I1
sI79608
I1
sI79609
I1
sI79611
I1
sI79612
I1
sI79616
I1
sI79618
I1
sI79621
I1
sI79623
I1
sI440073
I1
sI79627
I1
sI79629
I1
sI79630
I1
sI79634
I1
sI79637
I1
sI79639
I1
sI79642
I1
sI79644
I1
sI79645
I1
sI79648
I1
sI79649
I1
sI79650
I1
sI79656
I1
sI79657
I1
sI79661
I1
sI79663
I1
sI79665
I1
sI79668
I1
sI79670
I1
sI79671
I1
sI79674
I1
sI79675
I1
sI79677
I1
sI79679
I1
sI79683
I1
sI79684
I1
sI79691
I1
sI79695
I1
sI79696
I1
sI51512
I1
sI79698
I1
sI79705
I1
sI374618
I1
sI79707
I1
sI112476
I1
sI79709
I1
sI79710
I1
sI79712
I1
sI112483
I1
sI79717
I1
sI79720
I1
sI79722
I1
sI79723
I1
sI79725
I1
sI79726
I1
sI79728
I1
sI79729
I1
sI79730
I1
sI79731
I1
sI79734
I1
sI341880
I1
sI79739
I1
sI79740
I1
sI79741
I1
sI79742
I1
sI79744
I1
sI79745
I1
sI145282
I1
sI79747
I1
sI79750
I1
sI79758
I1
sI79772
I1
sI79774
I1
sI79777
I1
sI79778
I1
sI79780
I1
sI79781
I1
sI79782
I1
sI79783
I1
sI79784
I1
sI79789
I1
sI55031
I1
sI79796
I1
sI79798
I1
sI79800
I1
sI79801
I1
sI79802
I1
sI79805
I1
sI112574
I1
sI79809
I1
sI79810
I1
sI79811
I1
sI79813
I1
sI79815
I1
sI79819
I1
sI79822
I1
sI79823
I1
sI79825
I1
sI440275
I1
sI79828
I1
sI79829
I1
sI79830
I1
sI79831
I1
sI79832
I1
sI79834
I1
sI107984859
I1
sI79836
I1
sI79837
I1
sI79838
I1
sI79839
I1
sI145376
I1
sI79841
I1
sI79844
I1
sI79846
I1
sI79847
I1
sI112616
I1
sI79849
I1
sI79850
I1
sI145389
I1
sI79858
I1
sI79864
I1
sI79866
I1
sI79867
I1
sI79868
I1
sI79869
I1
sI145407
I1
sI79872
I1
sI374786
I1
sI79875
I1
sI79876
I1
sI84310
I1
sI79882
I1
sI79883
I1
sI79884
I1
sI79885
I1
sI79888
I1
sI79890
I1
sI342035
I1
sI79892
I1
sI79893
I1
sI79895
I1
sI440348
I1
sI79902
I1
sI79903
I1
sI79905
I1
sI79906
I1
sI374819
I1
sI79908
I1
sI145447
I1
sI51548
I1
sI79915
I1
sI79917
I1
sI79919
I1
sI79922
I1
sI79923
I1
sI79925
I1
sI79930
I1
sI79931
I1
sI79932
I1
sI112703
I1
sI79944
I1
sI79947
I1
sI374860
I1
sI79949
I1
sI374864
I1
sI79953
I1
sI79954
I1
sI79955
I1
sI374868
I1
sI79957
I1
sI79959
I1
sI79960
I1
sI145497
I1
sI79962
I1
sI374875
I1
sI79969
I1
sI79971
I1
sI145508
I1
sI79973
I1
sI374887
I1
sI79979
I1
sI79980
I1
sI79981
I1
sI79982
I1
sI374897
I1
sI374900
I1
sI79989
I1
sI79990
I1
sI79993
I1
sI79998
I1
sI80000
I1
sI112770
I1
sI80003
I1
sI80005
I1
sI80006
I1
sI374920
I1
sI80011
I1
sI80012
I1
sI80013
I1
sI374928
I1
sI80017
I1
sI80018
I1
sI253635
I1
sI80021
I1
sI80024
I1
sI80025
I1
sI80028
I1
sI145567
I1
sI374946
I1
sI80036
I1
sI342184
I1
sI374955
I1
sI80059
I1
sI374973
I1
sI80063
I1
sI80067
I1
sI80071
I1
sI374986
I1
sI112849
I1
sI55041
I1
sI80097
I1
sI387836
I1
sI80114
I1
sI80115
I1
sI112885
I1
sI375033
I1
sI80122
I1
sI80125
I1
sI80127
I1
sI80128
I1
sI80133
I1
sI440590
I1
sI375056
I1
sI80146
I1
sI80148
I1
sI80150
I1
sI80152
I1
sI80157
I1
sI80162
I1
sI80167
I1
sI112937
I1
sI80173
I1
sI112942
I1
sI80179
I1
sI80183
I1
sI80184
I1
sI80194
I1
sI80195
I1
sI80199
I1
sI80204
I1
sI80205
I1
sI80206
I1
sI80208
I1
sI80210
I1
sI145748
I1
sI80213
I1
sI80216
I1
sI80217
I1
sI80219
I1
sI80221
I1
sI80222
I1
sI80224
I1
sI80227
I1
sI342372
I1
sI80230
I1
sI80232
I1
sI80235
I1
sI80254
I1
sI80255
I1
sI80256
I1
sI80262
I1
sI80267
I1
sI80279
I1
sI440730
I1
sI80305
I1
sI80308
I1
sI80309
I1
sI80312
I1
sI80313
I1
sI80314
I1
sI80315
I1
sI80317
I1
sI80321
I1
sI80323
I1
sI80324
I1
sI80325
I1
sI145864
I1
sI80332
I1
sI80333
I1
sI80342
I1
sI80343
I1
sI80345
I1
sI80347
I1
sI80351
I1
sI80352
I1
sI113130
I1
sI57085
I1
sI440829
I1
sI375298
I1
sI375307
I1
sI375316
I1
sI145942
I1
sI375337
I1
sI113220
I1
sI89869
I1
sI113235
I1
sI117178
I1
sI113246
I1
sI113251
I1
sI89874
I1
sI408187
I1
sI113277
I1
sI146057
I1
sI146059
I1
sI375449
I1
sI57118
I1
sI375484
I1
sI441024
I1
sI404220
I1
sI84435
I1
sI146177
I1
sI146183
I1
sI146198
I1
sI146206
I1
sI51676
I1
sI113451
I1
sI146223
I1
sI146227
I1
sI375611
I1
sI375616
I1
sI80705
I1
sI80709
I1
sI80714
I1
sI7991
I1
sI84450
I1
sI342865
I1
sI80725
I1
sI80726
I1
sI80727
I1
sI80739
I1
sI113510
I1
sI146279
I1
sI80745
I1
sI80746
I1
sI80760
I1
sI113540
I1
sI375686
I1
sI84460
I1
sI80778
I1
sI149998
I1
sI80790
I1
sI441250
I1
sI80816
I1
sI80817
I1
sI84467
I1
sI80821
I1
sI253769
I1
sI375743
I1
sI80833
I1
sI80835
I1
sI375748
I1
sI375757
I1
sI375759
I1
sI80851
I1
sI80852
I1
sI80854
I1
sI80856
I1
sI146395
I1
sI375775
I1
sI375790
I1
sI80895
I1
sI80896
I1
sI343099
I1
sI89953
I1
sI80975
I1
sI441459
I1
sI146556
I1
sI84501
I1
sI441476
I1
sI81030
I1
sI81031
I1
sI81033
I1
sI84503
I1
sI346653
I1
sI84515
I1
sI113878
I1
sI89978
I1
sI146664
I1
sI146691
I1
sI146705
I1
sI146712
I1
sI146713
I1
sI146722
I1
sI51761
I1
sI253832
I1
sI80174
I1
sI114034
I1
sI343413
I1
sI114049
I1
sI346689
I1
sI150084
I1
sI343450
I1
sI146850
I1
sI114088
I1
sI79091
I1
sI146894
I1
sI114132
I1
sI114134
I1
sI146909
I1
sI146923
I1
sI146956
I1
sI107986453
I1
sI147011
I1
sI81490
I1
sI81502
I1
sI114294
I1
sI81539
I1
sI81544
I1
sI494188
I1
sI81550
I1
sI81551
I1
sI81552
I1
sI8131
I1
sI81556
I1
sI81557
I1
sI81562
I1
sI81565
I1
sI81570
I1
sI81573
I1
sI81576
I1
sI81578
I1
sI442038
I1
sI81602
I1
sI81607
I1
sI81608
I1
sI81609
I1
sI81611
I1
sI81615
I1
sI81616
I1
sI81618
I1
sI81619
I1
sI81624
I1
sI147166
I1
sI442117
I1
sI81691
I1
sI81704
I1
sI79157
I1
sI442213
I1
sI114548
I1
sI81786
I1
sI81790
I1
sI81792
I1
sI81794
I1
sI81796
I1
sI81831
I1
sI81832
I1
sI81846
I1
sI81853
I1
sI221178
I1
sI81887
I1
sI81888
I1
sI81894
I1
sI147463
I1
sI81929
I1
sI344148
I1
sI114780
I1
sI114781
I1
sI114789
I1
sI114790
I1
sI114791
I1
sI114792
I1
sI114793
I1
sI114795
I1
sI114803
I1
sI114804
I1
sI114805
I1
sI114815
I1
sI114822
I1
sI114823
I1
sI114825
I1
sI114827
I1
sI114836
I1
sI114876
I1
sI114880
I1
sI114881
I1
sI114882
I1
sI114883
I1
sI114884
I1
sI147658
I1
sI114897
I1
sI114898
I1
sI245973
I1
sI147686
I1
sI147687
I1
sI147710
I1
sI166614
I1
sI147719
I1
sI114987
I1
sI114991
I1
sI344387
I1
sI115019
I1
sI115024
I1
sI147837
I1
sI147841
I1
sI122945
I1
sI246175
I1
sI147872
I1
sI2802
I1
sI115123
I1
sI147923
I1
sI147949
I1
sI115196
I1
sI246269
I1
sI147968
I1
sI115201
I1
sI147991
I1
sI246330
I1
sI8291
I1
sI115286
I1
sI115294
I1
sI1859
I1
sI115350
I1
sI148137
I1
sI49855
I1
sI100287171
I1
sI115426
I1
sI148229
I1
sI148254
I1
sI148266
I1
sI148268
I1
sI123016
I1
sI90249
I1
sI221322
I1
sI344905
I1
sI115548
I1
sI115584
I1
sI148362
I1
sI221336
I1
sI57505
I1
sI115677
I1
sI377841
I1
sI115701
I1
sI115703
I1
sI115727
I1
sI57520
I1
sI115752
I1
sI115811
I1
sI148581
I1
sI345222
I1
sI90321
I1
sI115948
I1
sI378108
I1
sI115992
I1
sI90333
I1
sI148789
I1
sI50488
I1
sI116039
I1
sI50507
I1
sI50511
I1
sI221416
I1
sI116085
I1
sI148870
I1
sI116113
I1
sI50614
I1
sI116154
I1
sI83394
I1
sI50632
I1
sI50636
I1
sI116173
I1
sI50640
I1
sI84899
I1
sI83416
I1
sI50649
I1
sI50650
I1
sI56243
I1
sI83440
I1
sI148979
I1
sI83445
I1
sI83448
I1
sI83449
I1
sI83450
I1
sI83451
I1
sI116228
I1
sI83461
I1
sI116238
I1
sI83473
I1
sI83478
I1
sI83479
I1
sI83480
I1
sI2993
I1
sI149041
I1
sI116285
I1
sI100288072
I1
sI83539
I1
sI83543
I1
sI83546
I1
sI8463
I1
sI83549
I1
sI116328
I1
sI50804
I1
sI50807
I1
sI83592
I1
sI83596
I1
sI116372
I1
sI83605
I1
sI83606
I1
sI83607
I1
sI83608
I1
sI50855
I1
sI50856
I1
sI57628
I1
sI50859
I1
sI50863
I1
sI150472
I1
sI345778
I1
sI83636
I1
sI83637
I1
sI149175
I1
sI83658
I1
sI83666
I1
sI116449
I1
sI83692
I1
sI116461
I1
sI83694
I1
sI83696
I1
sI83697
I1
sI83698
I1
sI83699
I1
sI83706
I1
sI83707
I1
sI50940
I1
sI90410
I1
sI50943
I1
sI50945
I1
sI83714
I1
sI83715
I1
sI83723
I1
sI83732
I1
sI83733
I1
sI83734
I1
sI83737
I1
sI83744
I1
sI83746
I1
sI83752
I1
sI51000
I1
sI51001
I1
sI51004
I1
sI51005
I1
sI51006
I1
sI51008
I1
sI51011
I1
sI51013
I1
sI345930
I1
sI83787
I1
sI100288332
I1
sI51023
I1
sI83795
I1
sI51029
I1
sI51030
I1
sI51035
I1
sI51057
I1
sI51058
I1
sI51059
I1
sI51061
I1
sI51066
I1
sI51070
I1
sI57664
I1
sI51077
I1
sI51078
I1
sI83849
I1
sI51082
I1
sI83851
I1
sI51084
I1
sI83853
I1
sI83856
I1
sI83857
I1
sI83858
I1
sI51091
I1
sI51093
I1
sI51098
I1
sI51100
I1
sI51101
I1
sI51102
I1
sI83871
I1
sI51104
I1
sI51105
I1
sI51107
I1
sI83876
I1
sI51111
I1
sI51112
I1
sI51115
I1
sI83890
I1
sI83891
I1
sI149428
I1
sI83894
I1
sI51127
I1
sI51129
I1
sI51133
I1
sI51134
I1
sI51147
I1
sI8525
I1
sI51155
I1
sI51160
I1
sI51161
I1
sI51162
I1
sI51164
I1
sI51166
I1
sI149473
I1
sI83938
I1
sI83939
I1
sI83940
I1
sI149478
I1
sI83943
I1
sI51176
I1
sI51179
I1
sI51184
I1
sI51185
I1
sI83959
I1
sI51192
I1
sI149499
I1
sI51196
I1
sI51199
I1
sI51201
I1
sI51203
I1
sI51205
I1
sI51207
I1
sI83985
I1
sI83986
I1
sI83989
I1
sI83990
I1
sI83992
I1
sI51225
I1
sI51230
I1
sI83999
I1
sI84000
I1
sI51233
I1
sI90459
I1
sI51246
I1
sI51252
I1
sI51256
I1
sI51257
I1
sI51259
I1
sI51265
I1
sI51266
I1
sI51267
I1
sI51271
I1
sI51276
I1
sI51277
I1
sI51279
I1
sI51281
I1
sI51285
I1
sI84057
I1
sI84058
I1
sI51291
I1
sI51292
I1
sI84062
I1
sI84063
I1
sI84064
I1
sI84066
I1
sI116835
I1
sI84068
I1
sI84069
I1
sI51302
I1
sI84071
I1
sI84072
I1
sI51305
I1
sI51306
I1
sI84077
I1
sI51310
I1
sI51312
I1
sI84081
I1
sI84083
I1
sI51317
I1
sI51321
I1
sI51322
I1
sI149628
I1
sI51326
I1
sI51329
I1
sI84101
I1
sI51334
I1
sI84106
I1
sI84107
I1
sI51340
I1
sI51343
I1
sI51347
I1
sI51348
I1
sI84125
I1
sI84126
I1
sI51361
I1
sI51363
I1
sI84132
I1
sI51365
I1
sI51366
I1
sI51368
I1
sI84140
I1
sI51375
I1
sI84144
I1
sI51377
I1
sI51380
I1
sI51385
I1
sI51386
I1
sI51390
I1
sI84159
I1
sI51393
I1
sI116931
I1
sI84164
I1
sI51397
I1
sI84166
I1
sI51399
I1
sI84168
I1
sI84172
I1
sI51409
I1
sI51411
I1
sI84181
I1
sI84186
I1
sI84187
I1
sI51421
I1
sI51422
I1
sI84193
I1
sI51426
I1
sI84196
I1
sI116966
I1
sI51433
I1
sI51434
I1
sI51435
I1
sI84215
I1
sI116984
I1
sI116986
I1
sI116987
I1
sI84220
I1
sI51454
I1
sI51455
I1
sI84224
I1
sI84225
I1
sI84230
I1
sI51463
I1
sI51466
I1
sI84239
I1
sI51474
I1
sI84245
I1
sI51479
I1
sI84250
I1
sI84251
I1
sI84253
I1
sI84254
I1
sI84255
I1
sI84256
I1
sI51491
I1
sI84263
I1
sI84264
I1
sI84268
I1
sI51501
I1
sI84271
I1
sI51507
I1
sI84280
I1
sI51513
I1
sI84282
I1
sI641339
I1
sI51517
I1
sI84286
I1
sI84287
I1
sI84288
I1
sI84289
I1
sI51524
I1
sI84293
I1
sI51528
I1
sI51529
I1
sI51530
I1
sI51531
I1
sI84303
I1
sI149840
I1
sI51538
I1
sI51542
I1
sI84312
I1
sI51547
I1
sI84316
I1
sI51555
I1
sI51557
I1
sI84326
I1
sI84328
I1
sI51562
I1
sI51564
I1
sI84333
I1
sI84334
I1
sI51569
I1
sI84340
I1
sI84343
I1
sI51582
I1
sI51585
I1
sI51586
I1
sI51592
I1
sI51593
I1
sI51594
I1
sI84364
I1
sI51599
I1
sI51603
I1
sI51604
I1
sI51611
I1
sI117154
I1
sI51619
I1
sI51626
I1
sI51629
I1
sI51635
I1
sI117177
I1
sI51642
I1
sI51643
I1
sI149951
I1
sI51654
I1
sI51657
I1
sI51661
I1
sI51667
I1
sI84436
I1
sI51669
I1
sI84439
I1
sI84441
I1
sI84443
I1
sI84444
I1
sI84448
I1
sI84449
I1
sI149986
I1
sI51684
I1
sI84455
I1
sI84458
I1
sI51692
I1
sI51693
I1
sI346606
I1
sI84465
I1
sI84466
I1
sI51699
I1
sI51700
I1
sI51702
I1
sI117245
I1
sI51710
I1
sI117247
I1
sI117248
I1
sI51720
I1
sI84498
I1
sI51733
I1
sI51735
I1
sI51738
I1
sI51741
I1
sI51742
I1
sI51744
I1
sI84513
I1
sI51747
I1
sI51750
I1
sI51752
I1
sI117289
I1
sI51754
I1
sI51755
I1
sI84525
I1
sI84527
I1
sI51760
I1
sI84529
I1
sI51763
I1
sI84532
I1
sI51765
I1
sI51768
I1
sI84542
I1
sI84545
I1
sI150082
I1
sI84547
I1
sI51780
I1
sI84553
I1
sI84557
I1
sI84570
I1
sI51805
I1
sI51809
I1
sI51816
I1
sI641649
I1
sI145173
I1
sI84617
I1
sI84620
I1
sI84623
I1
sI84626
I1
sI84628
I1
sI84629
I1
sI84630
I1
sI84632
I1
sI84640
I1
sI84641
I1
sI84645
I1
sI84647
I1
sI84656
I1
sI84658
I1
sI84660
I1
sI84667
I1
sI84668
I1
sI84669
I1
sI84675
I1
sI84678
I1
sI84680
I1
sI84688
I1
sI84689
I1
sI84690
I1
sI84691
I1
sI84696
I1
sI84698
I1
sI84699
I1
sI84700
I1
sI84701
I1
sI84705
I1
sI150248
I1
sI84717
I1
sI84722
I1
sI84725
I1
sI374569
I1
sI84733
I1
sI100289279
I1
sI150274
I1
sI150275
I1
sI150280
I1
sI84749
I1
sI84750
I1
sI150297
I1
sI84766
I1
sI84775
I1
sI57822
I1
sI84795
I1
sI84804
I1
sI84807
I1
sI84812
I1
sI150350
I1
sI117583
I1
sI84816
I1
sI84818
I1
sI150356
I1
sI84824
I1
sI150365
I1
sI84830
I1
sI84838
I1
sI150383
I1
sI84851
I1
sI84859
I1
sI84861
I1
sI84866
I1
sI84867
I1
sI84869
I1
sI84871
I1
sI84879
I1
sI84885
I1
sI84888
I1
sI84891
I1
sI84893
I1
sI84896
I1
sI445347
I1
sI84902
I1
sI84904
I1
sI84909
I1
sI84910
I1
sI284339
I1
sI84923
I1
sI84924
I1
sI84930
I1
sI84932
I1
sI84936
I1
sI84939
I1
sI84940
I1
sI84941
I1
sI84944
I1
sI150483
I1
sI84951
I1
sI84954
I1
sI84957
I1
sI84958
I1
sI84959
I1
sI84961
I1
sI84966
I1
sI84969
I1
sI84978
I1
sI84985
I1
sI85002
I1
sI85007
I1
sI85015
I1
sI85016
I1
sI85019
I1
sI85021
I1
sI347240
I1
sI445571
I1
sI445582
I1
sI150684
I1
sI150709
I1
sI642273
I1
sI150763
I1
sI440193
I1
sI167127
I1
sI85301
I1
sI85320
I1
sI85329
I1
sI85363
I1
sI85369
I1
sI85377
I1
sI85395
I1
sI85409
I1
sI150946
I1
sI85413
I1
sI85417
I1
sI642475
I1
sI150962
I1
sI85439
I1
sI85440
I1
sI85444
I1
sI85445
I1
sI85446
I1
sI23046
I1
sI85451
I1
sI85452
I1
sI85458
I1
sI85459
I1
sI85461
I1
sI85463
I1
sI85464
I1
sI151011
I1
sI85476
I1
sI85479
I1
sI151050
I1
sI151056
I1
sI347688
I1
sI642636
I1
sI347734
I1
sI347735
I1
sI347736
I1
sI347744
I1
sI105369199
I1
sI105369201
I1
sI118424
I1
sI118426
I1
sI118429
I1
sI3357
I1
sI151246
I1
sI151254
I1
sI151258
I1
sI118491
I1
sI151313
I1
sI199990
I1
sI118611
I1
sI151393
I1
sI440295
I1
sI348013
I1
sI79848
I1
sI118663
I1
sI642987
I1
sI643008
I1
sI151525
I1
sI151531
I1
sI79871
I1
sI348158
I1
sI118788
I1
sI348174
I1
sI348180
I1
sI118813
I1
sI151613
I1
sI53335
I1
sI53343
I1
sI53344
I1
sI53346
I1
sI151651
I1
sI348262
I1
sI53354
I1
sI53358
I1
sI53371
I1
sI53373
I1
sI118924
I1
sI53405
I1
sI53407
I1
sI643236
I1
sI348327
I1
sI151742
I1
sI118980
I1
sI119016
I1
sI282890
I1
sI151827
I1
sI151835
I1
sI643382
I1
sI151888
I1
sI643414
I1
sI282969
I1
sI643418
I1
sI282973
I1
sI282974
I1
sI151903
I1
sI282991
I1
sI53616
I1
sI53630
I1
sI53635
I1
sI151987
I1
sI152002
I1
sI152006
I1
sI152007
I1
sI414189
I1
sI283129
I1
sI283130
I1
sI152065
I1
sI283149
I1
sI152078
I1
sI283152
I1
sI79961
I1
sI152098
I1
sI152110
I1
sI643641
I1
sI53832
I1
sI53841
I1
sI283229
I1
sI119391
I1
sI283232
I1
sI283234
I1
sI414328
I1
sI152189
I1
sI348807
I1
sI152206
I1
sI53904
I1
sI283284
I1
sI53919
I1
sI283310
I1
sI283316
I1
sI53942
I1
sI283337
I1
sI152273
I1
sI283349
I1
sI283373
I1
sI283383
I1
sI643836
I1
sI54014
I1
sI54020
I1
sI152330
I1
sI54033
I1
sI283417
I1
sI119587
I1
sI54058
I1
sI54059
I1
sI80008
I1
sI54069
I1
sI200159
I1
sI283455
I1
sI348995
I1
sI200162
I1
sI54097
I1
sI152404
I1
sI54103
I1
sI729920
I1
sI54148
I1
sI54165
I1
sI152485
I1
sI54187
I1
sI283571
I1
sI152503
I1
sI283578
I1
sI80031
I1
sI54207
I1
sI54210
I1
sI54212
I1
sI101929926
I1
sI54221
I1
sI349136
I1
sI101929959
I1
sI283629
I1
sI283638
I1
sI283643
I1
sI152579
I1
sI152586
I1
sI283659
I1
sI149111
I1
sI54332
I1
sI54361
I1
sI152687
I1
sI54413
I1
sI283807
I1
sI54434
I1
sI54436
I1
sI54437
I1
sI54439
I1
sI54443
I1
sI54453
I1
sI54454
I1
sI54456
I1
sI54457
I1
sI54461
I1
sI54462
I1
sI54463
I1
sI54464
I1
sI54467
I1
sI54468
I1
sI54469
I1
sI414918
I1
sI283847
I1
sI283848
I1
sI54476
I1
sI54477
I1
sI54478
I1
sI54482
I1
sI152789
I1
sI54495
I1
sI54496
I1
sI54497
I1
sI54498
I1
sI54503
I1
sI54507
I1
sI54510
I1
sI54511
I1
sI54514
I1
sI54516
I1
sI54517
I1
sI54520
I1
sI54521
I1
sI283899
I1
sI54531
I1
sI54532
I1
sI54535
I1
sI54536
I1
sI54537
I1
sI54538
I1
sI54540
I1
sI54545
I1
sI54549
I1
sI283927
I1
sI54558
I1
sI54566
I1
sI120103
I1
sI152877
I1
sI283953
I1
sI54585
I1
sI54587
I1
sI54619
I1
sI54621
I1
sI152926
I1
sI283999
I1
sI284001
I1
sI284004
I1
sI54629
I1
sI284013
I1
sI284021
I1
sI349565
I1
sI54675
I1
sI54677
I1
sI284058
I1
sI152992
I1
sI120227
I1
sI54700
I1
sI54704
I1
sI284086
I1
sI54715
I1
sI54716
I1
sI284099
I1
sI54726
I1
sI284110
I1
sI284111
I1
sI54739
I1
sI54742
I1
sI54751
I1
sI284129
I1
sI284131
I1
sI54757
I1
sI54758
I1
sI54760
I1
sI54762
I1
sI54764
I1
sI54766
I1
sI54776
I1
sI54778
I1
sI284161
I1
sI153090
I1
sI151126
I1
sI54790
I1
sI54795
I1
sI54796
I1
sI54798
I1
sI54799
I1
sI54800
I1
sI54801
I1
sI54802
I1
sI54805
I1
sI54806
I1
sI54808
I1
sI54811
I1
sI54812
I1
sI54813
I1
sI54815
I1
sI54816
I1
sI54819
I1
sI54820
I1
sI54822
I1
sI54823
I1
sI153129
I1
sI54827
I1
sI54828
I1
sI54834
I1
sI54836
I1
sI54838
I1
sI54839
I1
sI54840
I1
sI120379
I1
sI54845
I1
sI54847
I1
sI54848
I1
sI54849
I1
sI54850
I1
sI54852
I1
sI54856
I1
sI54857
I1
sI54858
I1
sI54859
I1
sI54862
I1
sI54867
I1
sI54868
I1
sI54869
I1
sI120406
I1
sI54872
I1
sI54874
I1
sI54875
I1
sI54877
I1
sI284254
I1
sI54879
I1
sI54880
I1
sI54881
I1
sI54882
I1
sI54885
I1
sI120425
I1
sI54892
I1
sI54893
I1
sI54894
I1
sI54896
I1
sI153201
I1
sI54898
I1
sI54899
I1
sI54901
I1
sI54902
I1
sI54903
I1
sI54906
I1
sI54908
I1
sI54910
I1
sI54914
I1
sI54916
I1
sI54922
I1
sI54925
I1
sI54926
I1
sI54929
I1
sI284307
I1
sI54932
I1
sI284312
I1
sI153241
I1
sI54939
I1
sI54940
I1
sI54941
I1
sI54946
I1
sI284323
I1
sI284325
I1
sI54953
I1
sI54954
I1
sI54955
I1
sI54956
I1
sI54957
I1
sI54959
I1
sI54963
I1
sI54970
I1
sI54971
I1
sI54972
I1
sI54973
I1
sI54974
I1
sI54977
I1
sI54981
I1
sI284358
I1
sI284359
I1
sI284361
I1
sI54986
I1
sI100652748
I1
sI54991
I1
sI54993
I1
sI284370
I1
sI284371
I1
sI54996
I1
sI54997
I1
sI55001
I1
sI55002
I1
sI55003
I1
sI55006
I1
sI55007
I1
sI55008
I1
sI55010
I1
sI55012
I1
sI55016
I1
sI3708
I1
sI55022
I1
sI55023
I1
sI55024
I1
sI55026
I1
sI284403
I1
sI55028
I1
sI284406
I1
sI80169
I1
sI55035
I1
sI55036
I1
sI284415
I1
sI284417
I1
sI55051
I1
sI55054
I1
sI284434
I1
sI55061
I1
sI55063
I1
sI100652824
I1
sI55066
I1
sI55068
I1
sI55074
I1
sI55075
I1
sI284459
I1
sI55084
I1
sI55088
I1
sI153396
I1
sI55093
I1
sI55095
I1
sI55100
I1
sI55101
I1
sI55103
I1
sI55105
I1
sI55107
I1
sI55108
I1
sI55111
I1
sI55112
I1
sI55114
I1
sI55116
I1
sI55117
I1
sI55118
I1
sI55119
I1
sI55120
I1
sI284498
I1
sI55125
I1
sI55129
I1
sI55130
I1
sI55131
I1
sI55132
I1
sI55133
I1
sI55139
I1
sI55140
I1
sI55142
I1
sI55147
I1
sI284525
I1
sI55151
I1
sI55152
I1
sI55153
I1
sI55154
I1
sI55160
I1
sI55164
I1
sI284541
I1
sI55173
I1
sI55174
I1
sI55177
I1
sI55179
I1
sI55180
I1
sI55182
I1
sI55183
I1
sI55184
I1
sI55188
I1
sI55193
I1
sI55195
I1
sI55197
I1
sI55198
I1
sI55200
I1
sI55201
I1
sI645027
I1
sI55205
I1
sI55206
I1
sI55208
I1
sI55209
I1
sI55210
I1
sI55212
I1
sI55216
I1
sI55217
I1
sI55219
I1
sI55222
I1
sI55223
I1
sI55224
I1
sI55230
I1
sI55233
I1
sI284612
I1
sI284613
I1
sI55238
I1
sI55239
I1
sI55245
I1
sI55246
I1
sI55248
I1
sI55249
I1
sI55250
I1
sI55252
I1
sI55254
I1
sI55255
I1
sI55258
I1
sI55259
I1
sI55260
I1
sI153571
I1
sI55268
I1
sI55269
I1
sI55275
I1
sI55277
I1
sI55279
I1
sI55280
I1
sI55282
I1
sI55283
I1
sI55285
I1
sI55287
I1
sI55288
I1
sI55289
I1
sI55291
I1
sI55293
I1
sI55294
I1
sI55296
I1
sI645121
I1
sI55298
I1
sI55304
I1
sI55308
I1
sI55311
I1
sI55315
I1
sI284695
I1
sI55321
I1
sI55322
I1
sI120863
I1
sI55328
I1
sI55331
I1
sI55332
I1
sI55334
I1
sI55337
I1
sI153643
I1
sI55342
I1
sI55343
I1
sI55345
I1
sI284723
I1
sI55349
I1
sI55351
I1
sI153657
I1
sI55355
I1
sI120892
I1
sI55357
I1
sI55362
I1
sI55365
I1
sI55367
I1
sI55374
I1
sI284759
I1
sI120935
I1
sI113000
I1
sI353299
I1
sI55421
I1
sI55423
I1
sI55435
I1
sI55437
I1
sI55454
I1
sI153768
I1
sI121006
I1
sI55471
I1
sI55486
I1
sI55500
I1
sI55504
I1
sI55510
I1
sI55511
I1
sI317662
I1
sI55521
I1
sI153830
I1
sI284904
I1
sI55531
I1
sI3795
I1
sI55540
I1
sI55544
I1
sI55553
I1
sI55554
I1
sI55556
I1
sI347862
I1
sI55558
I1
sI55561
I1
sI22795
I1
sI22797
I1
sI22798
I1
sI22800
I1
sI22803
I1
sI284948
I1
sI55573
I1
sI22806
I1
sI22807
I1
sI55576
I1
sI55578
I1
sI642778
I1
sI55582
I1
sI22818
I1
sI55589
I1
sI22823
I1
sI22824
I1
sI55593
I1
sI22827
I1
sI22828
I1
sI22832
I1
sI55601
I1
sI55604
I1
sI317749
I1
sI22838
I1
sI22839
I1
sI645432
I1
sI55610
I1
sI22844
I1
sI55614
I1
sI55615
I1
sI284992
I1
sI55617
I1
sI317762
I1
sI55619
I1
sI284996
I1
sI55621
I1
sI55622
I1
sI55624
I1
sI55625
I1
sI55626
I1
sI55627
I1
sI55628
I1
sI22861
I1
sI22862
I1
sI22864
I1
sI22866
I1
sI55636
I1
sI55638
I1
sI22871
I1
sI22872
I1
sI22873
I1
sI22874
I1
sI22876
I1
sI22877
I1
sI22878
I1
sI22880
I1
sI285025
I1
sI55652
I1
sI55653
I1
sI22887
I1
sI55656
I1
sI55657
I1
sI22891
I1
sI55660
I1
sI22893
I1
sI22894
I1
sI55663
I1
sI22897
I1
sI55666
I1
sI55667
I1
sI55668
I1
sI22901
I1
sI22902
I1
sI22903
I1
sI22906
I1
sI22907
I1
sI55676
I1
sI55677
I1
sI22911
I1
sI55680
I1
sI55683
I1
sI22916
I1
sI88455
I1
sI22920
I1
sI55689
I1
sI55691
I1
sI55692
I1
sI22925
I1
sI22926
I1
sI55695
I1
sI22929
I1
sI22930
I1
sI22931
I1
sI55700
I1
sI55701
I1
sI22936
I1
sI22937
I1
sI55707
I1
sI22941
I1
sI55711
I1
sI22944
I1
sI55713
I1
sI55714
I1
sI22948
I1
sI22949
I1
sI55718
I1
sI55719
I1
sI22953
I1
sI22955
I1
sI121260
I1
sI55726
I1
sI55727
I1
sI55728
I1
sI55729
I1
sI121268
I1
sI55733
I1
sI55734
I1
sI121274
I1
sI55739
I1
sI55740
I1
sI55743
I1
sI55744
I1
sI22978
I1
sI22980
I1
sI22981
I1
sI22982
I1
sI22983
I1
sI55752
I1
sI55753
I1
sI55755
I1
sI55756
I1
sI55757
I1
sI55758
I1
sI22992
I1
sI55761
I1
sI22994
I1
sI22995
I1
sI55764
I1
sI22997
I1
sI22998
I1
sI22999
I1
sI55768
I1
sI154075
I1
sI23005
I1
sI23007
I1
sI55777
I1
sI55778
I1
sI55779
I1
sI23012
I1
sI219621
I1
sI23014
I1
sI219623
I1
sI55784
I1
sI55786
I1
sI55789
I1
sI23022
I1
sI23023
I1
sI23024
I1
sI55793
I1
sI55795
I1
sI55796
I1
sI23029
I1
sI23030
I1
sI55799
I1
sI23032
I1
sI23033
I1
sI55802
I1
sI55805
I1
sI55806
I1
sI23039
I1
sI55808
I1
sI23041
I1
sI23042
I1
sI55811
I1
sI55812
I1
sI55813
I1
sI55814
I1
sI23047
I1
sI23048
I1
sI285195
I1
sI23053
I1
sI23054
I1
sI23059
I1
sI219670
I1
sI23063
I1
sI23064
I1
sI23065
I1
sI23066
I1
sI55835
I1
sI55837
I1
sI55839
I1
sI23072
I1
sI219681
I1
sI23074
I1
sI55843
I1
sI285220
I1
sI55846
I1
sI23080
I1
sI23081
I1
sI23082
I1
sI55852
I1
sI23085
I1
sI23086
I1
sI23087
I1
sI55857
I1
sI23090
I1
sI219699
I1
sI23092
I1
sI55861
I1
sI55862
I1
sI55863
I1
sI23096
I1
sI23097
I1
sI285242
I1
sI55869
I1
sI23102
I1
sI55871
I1
sI23105
I1
sI23108
I1
sI23113
I1
sI23114
I1
sI23116
I1
sI55885
I1
sI23120
I1
sI55890
I1
sI285267
I1
sI285268
I1
sI23125
I1
sI23126
I1
sI23127
I1
sI219736
I1
sI23129
I1
sI23130
I1
sI23131
I1
sI55900
I1
sI23133
I1
sI55902
I1
sI23136
I1
sI23137
I1
sI285282
I1
sI23139
I1
sI23140
I1
sI55909
I1
sI154214
I1
sI154215
I1
sI23144
I1
sI55914
I1
sI55916
I1
sI23149
I1
sI23150
I1
sI23151
I1
sI23152
I1
sI23155
I1
sI23157
I1
sI23161
I1
sI23162
I1
sI23163
I1
sI23164
I1
sI23166
I1
sI285313
I1
sI23173
I1
sI23174
I1
sI23175
I1
sI23176
I1
sI23178
I1
sI23179
I1
sI23180
I1
sI23181
I1
sI219790
I1
sI23185
I1
sI285331
I1
sI23189
I1
sI285335
I1
sI23192
I1
sI23193
I1
sI23196
I1
sI23198
I1
sI23199
I1
sI55968
I1
sI23201
I1
sI23203
I1
sI23205
I1
sI55974
I1
sI55975
I1
sI121512
I1
sI23211
I1
sI23213
I1
sI23214
I1
sI23215
I1
sI23216
I1
sI285362
I1
sI23223
I1
sI23225
I1
sI55997
I1
sI23231
I1
sI121536
I1
sI23233
I1
sI23236
I1
sI23240
I1
sI23241
I1
sI23242
I1
sI23243
I1
sI23245
I1
sI23247
I1
sI23248
I1
sI23250
I1
sI23252
I1
sI23253
I1
sI23254
I1
sI23255
I1
sI23256
I1
sI23258
I1
sI23259
I1
sI23261
I1
sI23262
I1
sI23263
I1
sI23265
I1
sI23266
I1
sI23268
I1
sI23271
I1
sI23272
I1
sI23274
I1
sI23275
I1
sI23276
I1
sI285423
I1
sI23281
I1
sI23284
I1
sI23286
I1
sI23287
I1
sI23288
I1
sI23291
I1
sI56061
I1
sI219902
I1
sI23295
I1
sI121601
I1
sI23301
I1
sI23303
I1
sI23304
I1
sI23305
I1
sI23306
I1
sI23307
I1
sI23308
I1
sI23309
I1
sI23313
I1
sI23315
I1
sI23316
I1
sI23318
I1
sI23321
I1
sI23322
I1
sI219931
I1
sI23325
I1
sI23327
I1
sI23328
I1
sI23329
I1
sI23331
I1
sI23332
I1
sI23335
I1
sI23338
I1
sI23339
I1
sI285489
I1
sI23347
I1
sI23348
I1
sI23350
I1
sI23351
I1
sI23353
I1
sI285498
I1
sI23355
I1
sI285500
I1
sI23358
I1
sI23362
I1
sI23363
I1
sI23365
I1
sI23366
I1
sI23367
I1
sI23368
I1
sI23369
I1
sI23370
I1
sI23371
I1
sI23373
I1
sI285521
I1
sI219988
I1
sI23381
I1
sI23382
I1
sI23383
I1
sI23385
I1
sI56154
I1
sI56155
I1
sI23389
I1
sI23390
I1
sI56159
I1
sI23392
I1
sI220001
I1
sI220002
I1
sI56163
I1
sI56164
I1
sI23397
I1
sI23398
I1
sI23400
I1
sI56169
I1
sI613227
I1
sI23404
I1
sI23405
I1
sI23408
I1
sI23410
I1
sI285555
I1
sI23415
I1
sI23416
I1
sI23418
I1
sI23421
I1
sI23423
I1
sI220032
I1
sI23426
I1
sI23428
I1
sI100129669
I1
sI23432
I1
sI23433
I1
sI23438
I1
sI220047
I1
sI23443
I1
sI23446
I1
sI285596
I1
sI285598
I1
sI285600
I1
sI23457
I1
sI23460
I1
sI285605
I1
sI23464
I1
sI220074
I1
sI23469
I1
sI23471
I1
sI23473
I1
sI220082
I1
sI23475
I1
sI23478
I1
sI23479
I1
sI23481
I1
sI56252
I1
sI121793
I1
sI23491
I1
sI23492
I1
sI285641
I1
sI23498
I1
sI220108
I1
sI23503
I1
sI23504
I1
sI23505
I1
sI252884
I1
sI23512
I1
sI23514
I1
sI23516
I1
sI23518
I1
sI56288
I1
sI23522
I1
sI23523
I1
sI23526
I1
sI23527
I1
sI56301
I1
sI285679
I1
sI23536
I1
sI23541
I1
sI23542
I1
sI23543
I1
sI23544
I1
sI23549
I1
sI23550
I1
sI23552
I1
sI23555
I1
sI23556
I1
sI285704
I1
sI23567
I1
sI23569
I1
sI56341
I1
sI23576
I1
sI154661
I1
sI23590
I1
sI23595
I1
sI23598
I1
sI23601
I1
sI23604
I1
sI252983
I1
sI23608
I1
sI285753
I1
sI285755
I1
sI23613
I1
sI9397
I1
sI285761
I1
sI23620
I1
sI23621
I1
sI23623
I1
sI23624
I1
sI23626
I1
sI23632
I1
sI23635
I1
sI253012
I1
sI23639
I1
sI23640
I1
sI253017
I1
sI23643
I1
sI23647
I1
sI23648
I1
sI23649
I1
sI23650
I1
sI23659
I1
sI23660
I1
sI23671
I1
sI23683
I1
sI285848
I1
sI23705
I1
sI56478
I1
sI56479
I1
sI100129969
I1
sI23731
I1
sI154807
I1
sI154810
I1
sI122046
I1
sI23746
I1
sI122060
I1
sI23759
I1
sI23760
I1
sI23762
I1
sI23774
I1
sI23786
I1
sI23787
I1
sI23788
I1
sI285941
I1
sI220416
I1
sI285955
I1
sI253190
I1
sI285966
I1
sI56603
I1
sI56606
I1
sI285989
I1
sI56616
I1
sI56624
I1
sI56649
I1
sI56652
I1
sI56672
I1
sI646498
I1
sI286053
I1
sI286077
I1
sI286097
I1
sI122258
I1
sI286122
I1
sI155051
I1
sI155061
I1
sI646588
I1
sI286148
I1
sI286151
I1
sI56776
I1
sI286183
I1
sI286204
I1
sI56829
I1
sI286207
I1
sI56833
I1
sI56834
I1
sI140545
I1
sI56848
I1
sI56850
I1
sI56853
I1
sI122402
I1
sI286256
I1
sI155185
I1
sI56884
I1
sI56886
I1
sI56888
I1
sI56890
I1
sI56894
I1
sI56897
I1
sI100130370
I1
sI56899
I1
sI253512
I1
sI56907
I1
sI24140
I1
sI56911
I1
sI56916
I1
sI56917
I1
sI56922
I1
sI56927
I1
sI56928
I1
sI56935
I1
sI56937
I1
sI56938
I1
sI56940
I1
sI56942
I1
sI122481
I1
sI56946
I1
sI56947
I1
sI56948
I1
sI253558
I1
sI253559
I1
sI56953
I1
sI56956
I1
sI56957
I1
sI56964
I1
sI56965
I1
sI56970
I1
sI122509
I1
sI56975
I1
sI56977
I1
sI56978
I1
sI56980
I1
sI56981
I1
sI56986
I1
sI56987
I1
sI56992
I1
sI56996
I1
sI89765
I1
sI89766
I1
sI89777
I1
sI57010
I1
sI89781
I1
sI89782
I1
sI122553
I1
sI57018
I1
sI57019
I1
sI57020
I1
sI89790
I1
sI89795
I1
sI89796
I1
sI89797
I1
sI253639
I1
sI89801
I1
sI286410
I1
sI57038
I1
sI253650
I1
sI57047
I1
sI100130520
I1
sI57060
I1
sI646892
I1
sI286451
I1
sI548596
I1
sI89845
I1
sI89848
I1
sI89849
I1
sI122618
I1
sI89853
I1
sI122622
I1
sI220929
I1
sI57092
I1
sI57096
I1
sI57099
I1
sI57101
I1
sI253714
I1
sI57107
I1
sI89876
I1
sI57109
I1
sI57110
I1
sI89882
I1
sI57115
I1
sI253725
I1
sI89886
I1
sI220965
I1
sI89894
I1
sI57127
I1
sI57128
I1
sI253738
I1
sI155435
I1
sI57134
I1
sI89910
I1
sI57143
I1
sI57146
I1
sI57147
I1
sI57148
I1
sI57149
I1
sI57153
I1
sI57154
I1
sI342667
I1
sI57157
I1
sI89927
I1
sI57161
I1
sI57162
I1
sI89932
I1
sI122704
I1
sI89941
I1
sI253782
I1
sI57178
I1
sI57179
I1
sI57180
I1
sI57185
I1
sI57186
I1
sI57187
I1
sI57188
I1
sI57194
I1
sI221037
I1
sI57198
I1
sI89970
I1
sI57205
I1
sI57209
I1
sI57210
I1
sI57211
I1
sI57217
I1
sI221061
I1
sI57222
I1
sI57223
I1
sI57224
I1
sI57231
I1
sI221074
I1
sI221078
I1
sI122786
I1
sI90019
I1
sI90025
I1
sI57282
I1
sI90060
I1
sI286676
I1
sI221150
I1
sI57335
I1
sI57337
I1
sI57338
I1
sI57343
I1
sI90113
I1
sI57348
I1
sI253959
I1
sI90134
I1
sI90139
I1
sI253980
I1
sI90141
I1
sI57380
I1
sI90161
I1
sI90167
I1
sI57404
I1
sI57407
I1
sI57409
I1
sI57410
I1
sI122953
I1
sI221264
I1
sI90203
I1
sI254048
I1
sI254050
I1
sI57446
I1
sI57447
I1
sI57449
I1
sI286826
I1
sI57451
I1
sI57453
I1
sI51447
I1
sI57455
I1
sI254065
I1
sI57460
I1
sI221301
I1
sI221302
I1
sI57464
I1
sI57466
I1
sI57467
I1
sI57472
I1
sI57473
I1
sI57475
I1
sI57476
I1
sI57477
I1
sI57478
I1
sI57480
I1
sI57481
I1
sI57482
I1
sI57484
I1
sI57486
I1
sI57489
I1
sI57492
I1
sI254102
I1
sI100130967
I1
sI57496
I1
sI57501
I1
sI57504
I1
sI90273
I1
sI57507
I1
sI57509
I1
sI254122
I1
sI90288
I1
sI90293
I1
sI57526
I1
sI57531
I1
sI57533
I1
sI57534
I1
sI57535
I1
sI57536
I1
sI57537
I1
sI57540
I1
sI57541
I1
sI57545
I1
sI221391
I1
sI57553
I1
sI57554
I1
sI221395
I1
sI57556
I1
sI90326
I1
sI123096
I1
sI254173
I1
sI57569
I1
sI90338
I1
sI57571
I1
sI57572
I1
sI90342
I1
sI57576
I1
sI57577
I1
sI57578
I1
sI57579
I1
sI221421
I1
sI57582
I1
sI57583
I1
sI57584
I1
sI57589
I1
sI57591
I1
sI57593
I1
sI57595
I1
sI57596
I1
sI57597
I1
sI57599
I1
sI57600
I1
sI57602
I1
sI57604
I1
sI57609
I1
sI57610
I1
sI57614
I1
sI57617
I1
sI221458
I1
sI57619
I1
sI57623
I1
sI57626
I1
sI221468
I1
sI57631
I1
sI221472
I1
sI123169
I1
sI57636
I1
sI221481
I1
sI57642
I1
sI254251
I1
sI57644
I1
sI57646
I1
sI57647
I1
sI57648
I1
sI57649
I1
sI57650
I1
sI57654
I1
sI57655
I1
sI57657
I1
sI57658
I1
sI57661
I1
sI57662
I1
sI254272
I1
sI57666
I1
sI57669
I1
sI123207
I1
sI57679
I1
sI57683
I1
sI57685
I1
sI57690
I1
sI57691
I1
sI57695
I1
sI57696
I1
sI57697
I1
sI57698
I1
sI57699
I1
sI57704
I1
sI221545
I1
sI57706
I1
sI57708
I1
sI9618
I1
sI57711
I1
sI9619
I1
sI57718
I1
sI57720
I1
sI57722
I1
sI57724
I1
sI57727
I1
sI57728
I1
sI57731
I1
sI57732
I1
sI100131211
I1
sI168002
I1
sI123283
I1
sI90522
I1
sI90523
I1
sI90525
I1
sI57758
I1
sI90527
I1
sI90529
I1
sI647589
I1
sI9628
I1
sI90550
I1
sI90557
I1
sI255394
I1
sI221656
I1
sI57818
I1
sI123355
I1
sI221662
I1
sI57823
I1
sI57828
I1
sI123041
I1
sI221692
I1
sI90627
I1
sI57862
I1
sI90634
I1
sI90665
I1
sI105374250
I1
sI90678
I1
sI151648
I1
sI90701
I1
sI53347
I1
sI221785
I1
sI221806
I1
sI90736
I1
sI91584
I1
sI352909
I1
sI105374378
I1
sI90799
I1
sI90806
I1
sI26057
I1
sI352954
I1
sI90835
I1
sI90853
I1
sI221927
I1
sI123624
I1
sI221935
I1
sI90865
I1
sI221981
I1
sI123688
I1
sI58155
I1
sI90933
I1
sI222008
I1
sI123720
I1
sI123722
I1
sI58190
I1
sI353116
I1
sI123745
I1
sI254827
I1
sI91624
I1
sI222068
I1
sI80704
I1
sI91010
I1
sI91012
I1
sI123811
I1
sI254887
I1
sI91050
I1
sI124404
I1
sI91074
I1
sI123872
I1
sI123876
I1
sI254956
I1
sI91120
I1
sI100131827
I1
sI353274
I1
sI91133
I1
sI4126
I1
sI91147
I1
sI222223
I1
sI9731
I1
sI222234
I1
sI222235
I1
sI222236
I1
sI9735
I1
sI91181
I1
sI222255
I1
sI222256
I1
sI353345
I1
sI255057
I1
sI255061
I1
sI91227
I1
sI58473
I1
sI91252
I1
sI200894
I1
sI58488
I1
sI58490
I1
sI255101
I1
sI255104
I1
sI58497
I1
sI58498
I1
sI58499
I1
sI206358
I1
sI58504
I1
sI124045
I1
sI255119
I1
sI58513
I1
sI124056
I1
sI91289
I1
sI58525
I1
sI25758
I1
sI25759
I1
sI25766
I1
sI91304
I1
sI25771
I1
sI25777
I1
sI25778
I1
sI222389
I1
sI91319
I1
sI124093
I1
sI25792
I1
sI25793
I1
sI25798
I1
sI25801
I1
sI25803
I1
sI25807
I1
sI25809
I1
sI26147
I1
sI91351
I1
sI25816
I1
sI353500
I1
sI25821
I1
sI25824
I1
sI25825
I1
sI25827
I1
sI25829
I1
sI25831
I1
sI25833
I1
sI25834
I1
sI25836
I1
sI25837
I1
sI255220
I1
sI25852
I1
sI25854
I1
sI25861
I1
sI255239
I1
sI91404
I1
sI25870
I1
sI25871
I1
sI91409
I1
sI25875
I1
sI222487
I1
sI91419
I1
sI25884
I1
sI25886
I1
sI25890
I1
sI25891
I1
sI25896
I1
sI25898
I1
sI25900
I1
sI25902
I1
sI25903
I1
sI25904
I1
sI25906
I1
sI25909
I1
sI25912
I1
sI25914
I1
sI91452
I1
sI124222
I1
sI25924
I1
sI25925
I1
sI25936
I1
sI222545
I1
sI25941
I1
sI25943
I1
sI25945
I1
sI25946
I1
sI255324
I1
sI25950
I1
sI25953
I1
sI25957
I1
sI25960
I1
sI25961
I1
sI25963
I1
sI25966
I1
sI25970
I1
sI25972
I1
sI25979
I1
sI91522
I1
sI25988
I1
sI25989
I1
sI91526
I1
sI25992
I1
sI25998
I1
sI26005
I1
sI26007
I1
sI26009
I1
sI26010
I1
sI26012
I1
sI26018
I1
sI26030
I1
sI26031
I1
sI26033
I1
sI26034
I1
sI26035
I1
sI26036
I1
sI26037
I1
sI26039
I1
sI26046
I1
sI26048
I1
sI26051
I1
sI26052
I1
sI26053
I1
sI26054
I1
sI222663
I1
sI26056
I1
sI206412
I1
sI26059
I1
sI26061
I1
sI26064
I1
sI26065
I1
sI26074
I1
sI26084
I1
sI26086
I1
sI26088
I1
sI26090
I1
sI26091
I1
sI26092
I1
sI26094
I1
sI26095
I1
sI124401
I1
sI26100
I1
sI91646
I1
sI91647
I1
sI26115
I1
sI91653
I1
sI26118
I1
sI26119
I1
sI26123
I1
sI91662
I1
sI26130
I1
sI26133
I1
sI26135
I1
sI9818
I1
sI26146
I1
sI91683
I1
sI124454
I1
sI26151
I1
sI26160
I1
sI26164
I1
sI26166
I1
sI26173
I1
sI124491
I1
sI26190
I1
sI26191
I1
sI26207
I1
sI124512
I1
sI91746
I1
sI91750
I1
sI91754
I1
sI26227
I1
sI26229
I1
sI26234
I1
sI105375355
I1
sI124540
I1
sI222826
I1
sI157313
I1
sI91782
I1
sI255631
I1
sI26256
I1
sI26259
I1
sI26260
I1
sI26261
I1
sI26262
I1
sI91801
I1
sI26266
I1
sI26267
I1
sI26272
I1
sI26273
I1
sI26276
I1
sI26277
I1
sI26287
I1
sI26289
I1
sI91828
I1
sI91833
I1
sI26298
I1
sI26301
I1
sI157378
I1
sI91851
I1
sI91860
I1
sI91862
I1
sI91869
I1
sI26235
I1
sI550631
I1
sI222967
I1
sI255743
I1
sI255762
I1
sI91937
I1
sI124739
I1
sI91975
I1
sI124751
I1
sI55605
I1
sI92002
I1
sI223075
I1
sI26468
I1
sI26469
I1
sI26470
I1
sI92017
I1
sI124790
I1
sI124565
I1
sI59269
I1
sI26502
I1
sI26503
I1
sI26504
I1
sI26505
I1
sI26507
I1
sI26509
I1
sI26512
I1
sI124817
I1
sI59285
I1
sI26520
I1
sI26523
I1
sI26524
I1
sI26526
I1
sI26528
I1
sI59307
I1
sI255928
I1
sI92092
I1
sI124872
I1
sI92105
I1
sI92106
I1
sI59339
I1
sI59340
I1
sI59341
I1
sI59343
I1
sI59344
I1
sI26578
I1
sI59348
I1
sI59349
I1
sI59350
I1
sI387032
I1
sI26585
I1
sI26586
I1
sI255967
I1
sI92140
I1
sI92154
I1
sI124925
I1
sI157697
I1
sI124930
I1
sI256006
I1
sI124935
I1
sI124936
I1
sI124975
I1
sI92211
I1
sI387129
I1
sI124997
I1
sI256076
I1
sI157777
I1
sI124602
I1
sI92270
I1
sI92283
I1
sI256126
I1
sI26751
I1
sI125058
I1
sI125061
I1
sI26762
I1
sI157855
I1
sI92335
I1
sI92340
I1
sI92344
I1
sI92346
I1
sI92370
I1
sI157922
I1
sI92399
I1
sI125170
I1
sI125206
I1
sI387357
I1
sI4485
I1
sI256309
I1
sI92482
I1
sI256329
I1
sI26960
I1
sI158046
I1
sI256356
I1
sI92521
I1
sI256364
I1
sI26993
I1
sI158067
I1
sI26998
I1
sI26999
I1
sI27000
I1
sI256380
I1
sI27005
I1
sI27010
I1
sI27019
I1
sI27020
I1
sI92558
I1
sI92565
I1
sI27030
I1
sI125336
I1
sI27033
I1
sI27034
I1
sI27035
I1
sI27036
I1
sI27037
I1
sI27039
I1
sI27040
I1
sI256435
I1
sI92597
I1
sI158135
I1
sI27067
I1
sI27068
I1
sI27071
I1
sI27074
I1
sI27077
I1
sI27086
I1
sI27090
I1
sI646851
I1
sI256471
I1
sI27097
I1
sI27098
I1
sI27109
I1
sI27113
I1
sI27115
I1
sI27120
I1
sI27124
I1
sI27127
I1
sI92667
I1
sI27132
I1
sI27136
I1
sI27145
I1
sI158219
I1
sI27148
I1
sI387597
I1
sI27151
I1
sI27152
I1
sI387601
I1
sI27154
I1
sI27156
I1
sI27158
I1
sI27161
I1
sI158234
I1
sI27163
I1
sI27165
I1
sI92703
I1
sI125476
I1
sI27175
I1
sI158248
I1
sI27178
I1
sI92715
I1
sI27180
I1
sI125488
I1
sI27185
I1
sI168374
I1
sI92745
I1
sI158297
I1
sI27229
I1
sI27231
I1
sI387680
I1
sI27235
I1
sI27236
I1
sI27241
I1
sI27248
I1
sI27252
I1
sI158326
I1
sI27255
I1
sI387707
I1
sI92799
I1
sI387712
I1
sI256643
I1
sI100526739
I1
sI27284
I1
sI92822
I1
sI27291
I1
sI27293
I1
sI27295
I1
sI27297
I1
sI27300
I1
sI27303
I1
sI387755
I1
sI146547
I1
sI92856
I1
sI27324
I1
sI387775
I1
sI27328
I1
sI158401
I1
sI387778
I1
sI27332
I1
sI27333
I1
sI256710
I1
sI256714
I1
sI27343
I1
sI27347
I1
sI27348
I1
sI27352
I1
sI158431
I1
sI92906
I1
sI92912
I1
sI256764
I1
sI387837
I1
sI92949
I1
sI92960
I1
sI27429
I1
sI27433
I1
sI27434
I1
sI27436
I1
sI256815
I1
sI27440
I1
sI387890
I1
sI27443
I1
sI93034
I1
sI158584
I1
sI387990
I1
sI60312
I1
sI93081
I1
sI93099
I1
sI93100
I1
sI125875
I1
sI388021
I1
sI60343
I1
sI256957
I1
sI266743
I1
sI93134
I1
sI256987
I1
sI60385
I1
sI125931
I1
sI60401
I1
sI257019
I1
sI60412
I1
sI257044
I1
sI60437
I1
sI388121
I1
sI93210
I1
sI257062
I1
sI162993
I1
sI93233
I1
sI60468
I1
sI126006
I1
sI126014
I1
sI60481
I1
sI60482
I1
sI158787
I1
sI259217
I1
sI60489
I1
sI60490
I1
sI60492
I1
sI257101
I1
sI60494
I1
sI60495
I1
sI257106
I1
sI93273
I1
sI124773
I1
sI60526
I1
sI126070
I1
sI257144
I1
sI126075
I1
sI60560
I1
sI257169
I1
sI158866
I1
sI93349
I1
sI257194
I1
sI126123
I1
sI60592
I1
sI126129
I1
sI93377
I1
sI257218
I1
sI60625
I1
sI60626
I1
sI57142
I1
sI4646
I1
sI388335
I1
sI388336
I1
sI388341
I1
sI93432
I1
sI60678
I1
sI60680
I1
sI60682
I1
sI60684
I1
sI60685
I1
sI126231
I1
sI100506012
I1
sI388389
I1
sI126248
I1
sI59271
I1
sI59272
I1
sI126259
I1
sI93492
I1
sI126306
I1
sI93550
I1
sI126321
I1
sI159090
I1
sI159091
I1
sI257397
I1
sI93594
I1
sI388512
I1
sI126374
I1
sI93627
I1
sI388553
I1
sI93643
I1
sI93649
I1
sI4686
I1
sI159195
I1
sI93663
I1
sI93664
I1
sI388581
I1
sI388630
I1
sI388633
I1
sI388650
I1
sI126526
I1
sI643680
I1
sI28231
I1
sI28232
I1
sI126549
I1
sI388743
I1
sI159371
I1
sI126626
I1
sI59338
I1
sI126668
I1
sI140609
I1
sI388849
I1
sI337876
I1
sI59352
I1
sI93986
I1
sI124245
I1
sI388931
I1
sI100527963
I1
sI28513
I1
sI388963
I1
sI94081
I1
sI126859
I1
sI94097
I1
sI94104
I1
sI94120
I1
sI94134
I1
sI159686
I1
sI389072
I1
sI389073
I1
sI258010
I1
sI126969
I1
sI389118
I1
sI389136
I1
sI94233
I1
sI127002
I1
sI127003
I1
sI94239
I1
sI94240
I1
sI389161
I1
sI127018
I1
sI389170
I1
sI130399
I1
sI389197
I1
sI192666
I1
sI553115
I1
sI192669
I1
sI192670
I1
sI146802
I1
sI389337
I1
sI159963
I1
sI389362
I1
sI159989
I1
sI135892
I1
sI127254
I1
sI127255
I1
sI387119
I1
sI28964
I1
sI28966
I1
sI28968
I1
sI28970
I1
sI28971
I1
sI127281
I1
sI389434
I1
sI102723899
I1
sI28988
I1
sI28992
I1
sI28996
I1
sI266977
I1
sI29028
I1
sI29062
I1
sI29063
I1
sI29066
I1
sI160140
I1
sI29070
I1
sI29072
I1
sI225689
I1
sI29085
I1
sI29087
I1
sI4848
I1
sI29097
I1
sI29098
I1
sI29099
I1
sI29102
I1
sI29109
I1
sI102724023
I1
sI29115
I1
sI29116
I1
sI29117
I1
sI29118
I1
sI29119
I1
sI29121
I1
sI29123
I1
sI29127
I1
sI127435
I1
sI119548
I1
sI389610
I1
sI389643
I1
sI160287
I1
sI389668
I1
sI127544
I1
sI160335
I1
sI160364
I1
sI160365
I1
sI160419
I1
sI389799
I1
sI160428
I1
sI389840
I1
sI127700
I1
sI160492
I1
sI127731
I1
sI26750
I1
sI7179
I1
sI160518
I1
sI256130
I1
sI127833
I1
sI4929
I1
sI102724488
I1
sI164656
I1
sI127943
I1
sI54093
I1
sI160762
I1
sI160777
I1
sI128025
I1
sI6446
I1
sI29760
I1
sI29761
I1
sI160851
I1
sI29780
I1
sI29781
I1
sI259173
I1
sI29800
I1
sI259197
I1
sI29841
I1
sI29842
I1
sI29843
I1
sI29855
I1
sI259232
I1
sI29881
I1
sI29883
I1
sI29886
I1
sI29887
I1
sI29888
I1
sI29893
I1
sI29894
I1
sI29896
I1
sI128209
I1
sI29906
I1
sI29911
I1
sI29919
I1
sI29922
I1
sI201595
I1
sI29924
I1
sI29926
I1
sI29934
I1
sI128239
I1
sI29940
I1
sI29941
I1
sI29943
I1
sI29945
I1
sI29952
I1
sI29953
I1
sI29954
I1
sI29958
I1
sI29959
I1
sI29966
I1
sI29970
I1
sI29974
I1
sI29988
I1
sI29991
I1
sI29994
I1
sI29995
I1
sI29998
I1
sI30011
I1
sI128344
I1
sI26097
I1
sI128387
I1
sI161176
I1
sI128414
I1
sI95681
I1
sI161253
I1
sI54472
I1
sI63027
I1
sI63035
I1
sI161357
I1
sI55565
I1
sI161424
I1
sI161436
I1
sI128710
I1
sI161497
I1
sI653509
I1
sI161514
I1
sI22837
I1
sI653067
I1
sI390928
I1
sI653082
I1
sI81545
I1
sI128853
I1
sI653145
I1
sI653149
I1
sI128869
I1
sI653220
I1
sI26953
I1
sI128954
I1
sI128989
I1
sI129049
I1
sI161823
I1
sI161829
I1
sI161835
I1
sI129080
I1
sI161882
I1
sI30813
I1
sI30815
I1
sI30817
I1
sI30819
I1
sI30820
I1
sI30827
I1
sI22849
I1
sI129138
I1
sI30835
I1
sI653437
I1
sI55339
I1
sI161931
I1
sI147138
I1
sI4301
I1
sI260293
I1
sI653513
I1
sI653519
I1
sI30968
I1
sI653567
I1
sI129285
I1
sI129293
I1
sI653583
I1
sI129303
I1
sI136242
I1
sI402569
I1
sI260425
I1
sI129401
I1
sI63876
I1
sI27032
I1
sI63892
I1
sI63893
I1
sI63894
I1
sI63895
I1
sI653720
I1
sI63897
I1
sI63908
I1
sI129446
I1
sI63917
I1
sI63922
I1
sI63924
I1
sI63925
I1
sI162239
I1
sI63941
I1
sI63946
I1
sI63967
I1
sI63970
I1
sI63971
I1
sI63976
I1
sI63977
I1
sI162282
I1
sI63982
I1
sI129531
I1
sI96764
I1
sI162333
I1
sI81669
I1
sI653857
I1
sI64061
I1
sI64062
I1
sI64066
I1
sI64067
I1
sI64077
I1
sI64078
I1
sI64081
I1
sI64087
I1
sI64089
I1
sI64092
I1
sI64093
I1
sI64094
I1
sI64097
I1
sI64105
I1
sI129642
I1
sI64109
I1
sI64116
I1
sI64118
I1
sI64127
I1
sI64129
I1
sI64130
I1
sI64145
I1
sI64147
I1
sI129685
I1
sI64151
I1
sI64174
I1
sI64175
I1
sI162494
I1
sI64210
I1
sI162515
I1
sI64218
I1
sI64220
I1
sI64223
I1
sI64225
I1
sI64231
I1
sI64240
I1
sI64241
I1
sI27094
I1
sI27095
I1
sI129804
I1
sI64282
I1
sI64283
I1
sI64284
I1
sI64285
I1
sI129852
I1
sI64319
I1
sI64326
I1
sI64327
I1
sI64328
I1
sI64333
I1
sI64342
I1
sI64343
I1
sI64344
I1
sI64359
I1
sI64375
I1
sI64386
I1
sI64395
I1
sI64397
I1
sI64409
I1
sI64411
I1
sI64419
I1
sI64420
I1
sI64421
I1
sI64423
I1
sI64426
I1
sI26150
I1
sI64429
I1
sI130013
I1
sI326624
I1
sI326625
I1
sI64506
I1
sI10753
I1
sI654346
I1
sI130106
I1
sI27147
I1
sI64581
I1
sI130132
I1
sI64599
I1
sI130162
I1
sI654463
I1
sI22885
I1
sI64682
I1
sI162989
I1
sI64689
I1
sI64699
I1
sI64708
I1
sI64718
I1
sI163033
I1
sI130271
I1
sI195814
I1
sI64744
I1
sI64745
I1
sI64747
I1
sI64753
I1
sI64754
I1
sI163059
I1
sI64756
I1
sI64757
I1
sI64759
I1
sI64760
I1
sI64761
I1
sI92714
I1
sI64770
I1
sI64772
I1
sI64776
I1
sI163081
I1
sI64778
I1
sI64779
I1
sI64784
I1
sI64786
I1
sI64788
I1
sI64793
I1
sI64794
I1
sI64799
I1
sI64800
I1
sI64802
I1
sI64816
I1
sI64837
I1
sI64839
I1
sI64840
I1
sI64844
I1
sI64848
I1
sI64849
I1
sI64850
I1
sI64854
I1
sI64855
I1
sI64857
I1
sI64863
I1
sI64866
I1
sI64895
I1
sI64897
I1
sI64900
I1
sI64901
I1
sI64902
I1
sI195977
I1
sI64919
I1
sI64921
I1
sI152815
I1
sI64924
I1
sI64926
I1
sI64927
I1
sI64928
I1
sI64943
I1
sI6527
I1
sI392636
I1
sI64963
I1
sI130507
I1
sI196051
I1
sI196074
I1
sI65003
I1
sI130540
I1
sI65009
I1
sI65010
I1
sI130576
I1
sI65055
I1
sI65056
I1
sI65057
I1
sI65059
I1
sI65061
I1
sI65065
I1
sI120071
I1
sI65084
I1
sI343990
I1
sI22899
I1
sI163404
I1
sI65109
I1
sI65110
I1
sI65117
I1
sI261729
I1
sI65123
I1
sI65125
I1
sI261734
I1
sI353514
I1
sI163486
I1
sI196264
I1
sI130733
I1
sI130752
I1
sI65217
I1
sI65220
I1
sI65243
I1
sI65249
I1
sI65258
I1
sI10877
I1
sI65266
I1
sI65267
I1
sI65268
I1
sI130814
I1
sI360200
I1
sI130827
I1
sI196394
I1
sI130872
I1
sI196446
I1
sI130916
I1
sI196463
I1
sI27283
I1
sI163702
I1
sI22909
I1
sI130940
I1
sI196483
I1
sI158358
I1
sI130951
I1
sI10905
I1
sI163747
I1
sI196527
I1
sI163782
I1
sI131034
I1
sI327657
I1
s.