(dp1
I2
I1
sI387755
I1
sI131076
I1
sI9
I1
sI13
I1
sI14
I1
sI15
I1
sI19
I1
sI20
I1
sI22
I1
sI23
I1
sI131096
I1
sI25
I1
sI26
I1
sI27
I1
sI29
I1
sI30
I1
sI31
I1
sI32
I1
sI33
I1
sI34
I1
sI35
I1
sI36
I1
sI37
I1
sI38
I1
sI39
I1
sI40
I1
sI41
I1
sI163882
I1
sI43
I1
sI131118
I1
sI47
I1
sI50
I1
sI51
I1
sI52
I1
sI53
I1
sI55
I1
sI56
I1
sI54623
I1
sI342918
I1
sI54625
I1
sI72
I1
sI81
I1
sI86
I1
sI87
I1
sI88
I1
sI89
I1
sI91
I1
sI92
I1
sI93
I1
sI94
I1
sI95
I1
sI97
I1
sI98
I1
sI100
I1
sI101
I1
sI102
I1
sI103
I1
sI104
I1
sI131177
I1
sI107
I1
sI108
I1
sI109
I1
sI111
I1
sI112
I1
sI113
I1
sI114
I1
sI115
I1
sI116
I1
sI117
I1
sI118
I1
sI119
I1
sI120
I1
sI123
I1
sI125
I1
sI126
I1
sI127
I1
sI130
I1
sI131
I1
sI132
I1
sI134
I1
sI196743
I1
sI136
I1
sI152940
I1
sI140
I1
sI141
I1
sI143
I1
sI147
I1
sI148
I1
sI156
I1
sI157
I1
sI158
I1
sI159
I1
sI160
I1
sI161
I1
sI162
I1
sI163
I1
sI164
I1
sI165
I1
sI166
I1
sI167
I1
sI173
I1
sI175
I1
sI176
I1
sI177
I1
sI178
I1
sI182
I1
sI185
I1
sI256714
I1
sI190
I1
sI191
I1
sI197
I1
sI199
I1
sI202
I1
sI203
I1
sI204
I1
sI205
I1
sI207
I1
sI208
I1
sI210
I1
sI211
I1
sI212
I1
sI214
I1
sI217
I1
sI218
I1
sI220
I1
sI221
I1
sI223
I1
sI224
I1
sI225
I1
sI226
I1
sI231
I1
sI239
I1
sI240
I1
sI241
I1
sI247
I1
sI249
I1
sI10965
I1
sI55656
I1
sI262
I1
sI265
I1
sI266
I1
sI267
I1
sI269
I1
sI270
I1
sI271
I1
sI272
I1
sI273
I1
sI274
I1
sI275
I1
sI164118
I1
sI284
I1
sI285
I1
sI286
I1
sI131368
I1
sI301
I1
sI302
I1
sI131375
I1
sI307
I1
sI308
I1
sI309
I1
sI310
I1
sI311
I1
sI312
I1
sI313
I1
sI314
I1
sI316
I1
sI317
I1
sI320
I1
sI321
I1
sI322
I1
sI323
I1
sI324
I1
sI327
I1
sI329
I1
sI332
I1
sI333
I1
sI334
I1
sI335
I1
sI131408
I1
sI339
I1
sI196951
I1
sI348
I1
sI351
I1
sI353
I1
sI354
I1
sI355
I1
sI356
I1
sI357
I1
sI358
I1
sI360
I1
sI361
I1
sI362
I1
sI364
I1
sI366
I1
sI367
I1
sI368
I1
sI369
I1
sI372
I1
sI373
I1
sI375
I1
sI377
I1
sI131450
I1
sI383
I1
sI387
I1
sI196996
I1
sI392
I1
sI393
I1
sI394
I1
sI395
I1
sI396
I1
sI400
I1
sI131474
I1
sI405
I1
sI406
I1
sI407
I1
sI408
I1
sI409
I1
sI410
I1
sI411
I1
sI412
I1
sI197021
I1
sI414
I1
sI415
I1
sI416
I1
sI419
I1
sI421
I1
sI427
I1
sI432
I1
sI433
I1
sI434
I1
sI435
I1
sI438
I1
sI65975
I1
sI440
I1
sI65977
I1
sI65979
I1
sI65980
I1
sI445
I1
sI65982
I1
sI65983
I1
sI65985
I1
sI65986
I1
sI65987
I1
sI65988
I1
sI65989
I1
sI65990
I1
sI65993
I1
sI460
I1
sI462
I1
sI66000
I1
sI66002
I1
sI467
I1
sI131540
I1
sI66005
I1
sI471
I1
sI131544
I1
sI473
I1
sI476
I1
sI478
I1
sI479
I1
sI480
I1
sI482
I1
sI51299
I1
sI486
I1
sI487
I1
sI488
I1
sI489
I1
sI490
I1
sI491
I1
sI492
I1
sI493
I1
sI131566
I1
sI498
I1
sI66035
I1
sI66036
I1
sI66037
I1
sI100532726
I1
sI131578
I1
sI509
I1
sI100532736
I1
sI517
I1
sI518
I1
sI284076
I1
sI522
I1
sI525
I1
sI197135
I1
sI529
I1
sI533
I1
sI534
I1
sI535
I1
sI11012
I1
sI538
I1
sI540
I1
sI545
I1
sI546
I1
sI547
I1
sI549
I1
sI550
I1
sI554
I1
sI164395
I1
sI558
I1
sI567
I1
sI573
I1
sI575
I1
sI576
I1
sI577
I1
sI578
I1
sI11019
I1
sI580
I1
sI581
I1
sI583
I1
sI585
I1
sI586
I1
sI587
I1
sI590
I1
sI593
I1
sI594
I1
sI596
I1
sI131669
I1
sI598
I1
sI602
I1
sI604
I1
sI605
I1
sI607
I1
sI613
I1
sI54716
I1
sI622
I1
sI627
I1
sI631
I1
sI634
I1
sI636
I1
sI637
I1
sI639
I1
sI640
I1
sI641
I1
sI643
I1
sI646
I1
sI197257
I1
sI650
I1
sI197259
I1
sI652
I1
sI653
I1
sI656
I1
sI658
I1
sI659
I1
sI660
I1
sI662
I1
sI663
I1
sI665
I1
sI666
I1
sI670
I1
sI672
I1
sI673
I1
sI81857
I1
sI676
I1
sI677
I1
sI682
I1
sI683
I1
sI685
I1
sI686
I1
sI688
I1
sI689
I1
sI695
I1
sI696
I1
sI699
I1
sI197320
I1
sI197322
I1
sI715
I1
sI717
I1
sI720
I1
sI725
I1
sI726
I1
sI727
I1
sI728
I1
sI729
I1
sI731
I1
sI732
I1
sI197342
I1
sI744
I1
sI745
I1
sI747
I1
sI197358
I1
sI752
I1
sI753
I1
sI754
I1
sI755
I1
sI131831
I1
sI760
I1
sI197370
I1
sI763
I1
sI765
I1
sI766
I1
sI767
I1
sI771
I1
sI773
I1
sI774
I1
sI775
I1
sI776
I1
sI777
I1
sI778
I1
sI779
I1
sI780
I1
sI781
I1
sI782
I1
sI783
I1
sI784
I1
sI785
I1
sI492307
I1
sI790
I1
sI196740
I1
sI794
I1
sI27439
I1
sI796
I1
sI131870
I1
sI197407
I1
sI800
I1
sI801
I1
sI805
I1
sI813
I1
sI814
I1
sI815
I1
sI816
I1
sI817
I1
sI818
I1
sI819
I1
sI821
I1
sI822
I1
sI824
I1
sI825
I1
sI826
I1
sI828
I1
sI829
I1
sI831
I1
sI832
I1
sI833
I1
sI834
I1
sI835
I1
sI837
I1
sI838
I1
sI839
I1
sI840
I1
sI841
I1
sI842
I1
sI843
I1
sI846
I1
sI857
I1
sI858
I1
sI860
I1
sI861
I1
sI862
I1
sI863
I1
sI864
I1
sI865
I1
sI867
I1
sI868
I1
sI873
I1
sI874
I1
sI875
I1
sI883
I1
sI887
I1
sI889
I1
sI892
I1
sI131965
I1
sI896
I1
sI898
I1
sI899
I1
sI902
I1
sI904
I1
sI905
I1
sI908
I1
sI909
I1
sI910
I1
sI911
I1
sI912
I1
sI913
I1
sI915
I1
sI917
I1
sI919
I1
sI920
I1
sI922
I1
sI923
I1
sI924
I1
sI925
I1
sI926
I1
sI928
I1
sI132001
I1
sI930
I1
sI932
I1
sI933
I1
sI939
I1
sI940
I1
sI164781
I1
sI942
I1
sI943
I1
sI944
I1
sI945
I1
sI946
I1
sI947
I1
sI948
I1
sI949
I1
sI950
I1
sI951
I1
sI953
I1
sI100533178
I1
sI955
I1
sI956
I1
sI100533181
I1
sI958
I1
sI960
I1
sI961
I1
sI962
I1
sI963
I1
sI965
I1
sI967
I1
sI968
I1
sI970
I1
sI971
I1
sI972
I1
sI973
I1
sI974
I1
sI975
I1
sI976
I1
sI983
I1
sI984
I1
sI987
I1
sI989
I1
sI990
I1
sI164832
I1
sI993
I1
sI994
I1
sI995
I1
sI996
I1
sI997
I1
sI998
I1
sI999
I1
sI1000
I1
sI1001
I1
sI1002
I1
sI1003
I1
sI1004
I1
sI1005
I1
sI1006
I1
sI1008
I1
sI1009
I1
sI1010
I1
sI1012
I1
sI1014
I1
sI1015
I1
sI1016
I1
sI1017
I1
sI1020
I1
sI1022
I1
sI1024
I1
sI1025
I1
sI1026
I1
sI1028
I1
sI1029
I1
sI1030
I1
sI1033
I1
sI1036
I1
sI1040
I1
sI202243
I1
sI1045
I1
sI1048
I1
sI1058
I1
sI1060
I1
sI1062
I1
sI1066
I1
sI55683
I1
sI132141
I1
sI1070
I1
sI1071
I1
sI1073
I1
sI1075
I1
sI1080
I1
sI1081
I1
sI1084
I1
sI132158
I1
sI219541
I1
sI1088
I1
sI1089
I1
sI1101
I1
sI1102
I1
sI1103
I1
sI1104
I1
sI1105
I1
sI1106
I1
sI1107
I1
sI1108
I1
sI1111
I1
sI1112
I1
sI1113
I1
sI1117
I1
sI1118
I1
sI1119
I1
sI1121
I1
sI1123
I1
sI1124
I1
sI132204
I1
sI1134
I1
sI1135
I1
sI1136
I1
sI1137
I1
sI1138
I1
sI1139
I1
sI1141
I1
sI1142
I1
sI1143
I1
sI1144
I1
sI1145
I1
sI1147
I1
sI1149
I1
sI1152
I1
sI1153
I1
sI1154
I1
sI1155
I1
sI132228
I1
sI1159
I1
sI1161
I1
sI147650
I1
sI132243
I1
sI1173
I1
sI1175
I1
sI1176
I1
sI1180
I1
sI1181
I1
sI1182
I1
sI1183
I1
sI1184
I1
sI1185
I1
sI1186
I1
sI1187
I1
sI1188
I1
sI1191
I1
sI1195
I1
sI1196
I1
sI1198
I1
sI1201
I1
sI1203
I1
sI1207
I1
sI1208
I1
sI1209
I1
sI1211
I1
sI1212
I1
sI1213
I1
sI1215
I1
sI132299
I1
sI164045
I1
sI1232
I1
sI1236
I1
sI338809
I1
sI1240
I1
sI165082
I1
sI1244
I1
sI132320
I1
sI132321
I1
sI1258
I1
sI1259
I1
sI132332
I1
sI1261
I1
sI1262
I1
sI1264
I1
sI1265
I1
sI1266
I1
sI1267
I1
sI1268
I1
sI1271
I1
sI1272
I1
sI1277
I1
sI1280
I1
sI1282
I1
sI1285
I1
sI1286
I1
sI1287
I1
sI1288
I1
sI1289
I1
sI1290
I1
sI1292
I1
sI1294
I1
sI1296
I1
sI1297
I1
sI1298
I1
sI1299
I1
sI1301
I1
sI1302
I1
sI1305
I1
sI1307
I1
sI1310
I1
sI1312
I1
sI1314
I1
sI1316
I1
sI1318
I1
sI1326
I1
sI1327
I1
sI165186
I1
sI1353
I1
sI1355
I1
sI1356
I1
sI1361
I1
sI1362
I1
sI1366
I1
sI1371
I1
sI1373
I1
sI1374
I1
sI1375
I1
sI1376
I1
sI1378
I1
sI54843
I1
sI1380
I1
sI1384
I1
sI1385
I1
sI1386
I1
sI1387
I1
sI1388
I1
sI1390
I1
sI1394
I1
sI1395
I1
sI1397
I1
sI1398
I1
sI1400
I1
sI1404
I1
sI1407
I1
sI1408
I1
sI1409
I1
sI1410
I1
sI1411
I1
sI1413
I1
sI1417
I1
sI1419
I1
sI1429
I1
sI60313
I1
sI1432
I1
sI1434
I1
sI1435
I1
sI1438
I1
sI1439
I1
sI1440
I1
sI1441
I1
sI1446
I1
sI1447
I1
sI1452
I1
sI1453
I1
sI1455
I1
sI1456
I1
sI1457
I1
sI1459
I1
sI1460
I1
sI1465
I1
sI1468
I1
sI27327
I1
sI1478
I1
sI1479
I1
sI1482
I1
sI165324
I1
sI1487
I1
sI1488
I1
sI1489
I1
sI1491
I1
sI1493
I1
sI1495
I1
sI1496
I1
sI1497
I1
sI1499
I1
sI1500
I1
sI1501
I1
sI1503
I1
sI1508
I1
sI1510
I1
sI1511
I1
sI1512
I1
sI1514
I1
sI64427
I1
sI1520
I1
sI1523
I1
sI1524
I1
sI1525
I1
sI1527
I1
sI1528
I1
sI1534
I1
sI1535
I1
sI1537
I1
sI1538
I1
sI132612
I1
sI1543
I1
sI1549
I1
sI1555
I1
sI1558
I1
sI431705
I1
sI27330
I1
sI1562
I1
sI1565
I1
sI431707
I1
sI1572
I1
sI1576
I1
sI1577
I1
sI1579
I1
sI1580
I1
sI1583
I1
sI1584
I1
sI132660
I1
sI1589
I1
sI1591
I1
sI1592
I1
sI1593
I1
sI1595
I1
sI132671
I1
sI1601
I1
sI1602
I1
sI1604
I1
sI1606
I1
sI1607
I1
sI1608
I1
sI1609
I1
sI1610
I1
sI1611
I1
sI1612
I1
sI1615
I1
sI1616
I1
sI1618
I1
sI1622
I1
sI1627
I1
sI1628
I1
sI1629
I1
sI1630
I1
sI1632
I1
sI199731
I1
sI1634
I1
sI1635
I1
sI1636
I1
sI1638
I1
sI1639
I1
sI1641
I1
sI1643
I1
sI1644
I1
sI1645
I1
sI1647
I1
sI132720
I1
sI1649
I1
sI132724
I1
sI1654
I1
sI1655
I1
sI1656
I1
sI84072
I1
sI1659
I1
sI1663
I1
sI1666
I1
sI1667
I1
sI1675
I1
sI1676
I1
sI1677
I1
sI1678
I1
sI1687
I1
sI165530
I1
sI54897
I1
sI165545
I1
sI54898
I1
sI1716
I1
sI1717
I1
sI1719
I1
sI1723
I1
sI1725
I1
sI1727
I1
sI1728
I1
sI1729
I1
sI1730
I1
sI1731
I1
sI1733
I1
sI1734
I1
sI1736
I1
sI1737
I1
sI1738
I1
sI1739
I1
sI1740
I1
sI1741
I1
sI1742
I1
sI1743
I1
sI1745
I1
sI1748
I1
sI1749
I1
sI1755
I1
sI1757
I1
sI1758
I1
sI1759
I1
sI1760
I1
sI1761
I1
sI1763
I1
sI1773
I1
sI1775
I1
sI1776
I1
sI1780
I1
sI1781
I1
sI1783
I1
sI1785
I1
sI1786
I1
sI1787
I1
sI1788
I1
sI1789
I1
sI1791
I1
sI132864
I1
sI1793
I1
sI1794
I1
sI1795
I1
sI1796
I1
sI1797
I1
sI1798
I1
sI1800
I1
sI1802
I1
sI1803
I1
sI1804
I1
sI1806
I1
sI1807
I1
sI1808
I1
sI1809
I1
sI132884
I1
sI1813
I1
sI1814
I1
sI22974
I1
sI1819
I1
sI1820
I1
sI1821
I1
sI1823
I1
sI1824
I1
sI1825
I1
sI1826
I1
sI1827
I1
sI198437
I1
sI1830
I1
sI1831
I1
sI1832
I1
sI1833
I1
sI1837
I1
sI1838
I1
sI165679
I1
sI1841
I1
sI1842
I1
sI1844
I1
sI1846
I1
sI54921
I1
sI1848
I1
sI1852
I1
sI1854
I1
sI1855
I1
sI1856
I1
sI1857
I1
sI5771
I1
sI1870
I1
sI1871
I1
sI132946
I1
sI1875
I1
sI1876
I1
sI132949
I1
sI1879
I1
sI132954
I1
sI1889
I1
sI1890
I1
sI1891
I1
sI1893
I1
sI1894
I1
sI1896
I1
sI1906
I1
sI1907
I1
sI1908
I1
sI1909
I1
sI1910
I1
sI1911
I1
sI1912
I1
sI132989
I1
sI136853
I1
sI1936
I1
sI284312
I1
sI1939
I1
sI1942
I1
sI133015
I1
sI1945
I1
sI1946
I1
sI1948
I1
sI1950
I1
sI1952
I1
sI1953
I1
sI1954
I1
sI1956
I1
sI1959
I1
sI1960
I1
sI1962
I1
sI1969
I1
sI1973
I1
sI1975
I1
sI1977
I1
sI51514
I1
sI1981
I1
sI1982
I1
sI1984
I1
sI165829
I1
sI1992
I1
sI1993
I1
sI1995
I1
sI1996
I1
sI1997
I1
sI1998
I1
sI1999
I1
sI2000
I1
sI2001
I1
sI2002
I1
sI54947
I1
sI2004
I1
sI2005
I1
sI2006
I1
sI2009
I1
sI2011
I1
sI2015
I1
sI2016
I1
sI2017
I1
sI2018
I1
sI2021
I1
sI2022
I1
sI2023
I1
sI2027
I1
sI2028
I1
sI2029
I1
sI2030
I1
sI2033
I1
sI2034
I1
sI2035
I1
sI2036
I1
sI2037
I1
sI2038
I1
sI2039
I1
sI2040
I1
sI2041
I1
sI2042
I1
sI2043
I1
sI2044
I1
sI2045
I1
sI2046
I1
sI2047
I1
sI2048
I1
sI2050
I1
sI2051
I1
sI2053
I1
sI2054
I1
sI2055
I1
sI2058
I1
sI2059
I1
sI2060
I1
sI165904
I1
sI2065
I1
sI2066
I1
sI2067
I1
sI2068
I1
sI2070
I1
sI2071
I1
sI2072
I1
sI2074
I1
sI2077
I1
sI2078
I1
sI338949
I1
sI2081
I1
sI55717
I1
sI2091
I1
sI284338
I1
sI255394
I1
sI2098
I1
sI2099
I1
sI2100
I1
sI2101
I1
sI2103
I1
sI2104
I1
sI2107
I1
sI2108
I1
sI2109
I1
sI2110
I1
sI2113
I1
sI2114
I1
sI2115
I1
sI2116
I1
sI2117
I1
sI2118
I1
sI2120
I1
sI2121
I1
sI2122
I1
sI2123
I1
sI2124
I1
sI2125
I1
sI2128
I1
sI2130
I1
sI2132
I1
sI2134
I1
sI2135
I1
sI2138
I1
sI2139
I1
sI2140
I1
sI2145
I1
sI2146
I1
sI2147
I1
sI2149
I1
sI2150
I1
sI2151
I1
sI2152
I1
sI2153
I1
sI2155
I1
sI2157
I1
sI2158
I1
sI54973
I1
sI2160
I1
sI2161
I1
sI2165
I1
sI2170
I1
sI2172
I1
sI2173
I1
sI2175
I1
sI2176
I1
sI2177
I1
sI2178
I1
sI2180
I1
sI2182
I1
sI54977
I1
sI2185
I1
sI2186
I1
sI2187
I1
sI2191
I1
sI2192
I1
sI2199
I1
sI2201
I1
sI2202
I1
sI2203
I1
sI2204
I1
sI2206
I1
sI2208
I1
sI2209
I1
sI2210
I1
sI2212
I1
sI2213
I1
sI2214
I1
sI2215
I1
sI2217
I1
sI2218
I1
sI2220
I1
sI2222
I1
sI2224
I1
sI284361
I1
sI2232
I1
sI2235
I1
sI133308
I1
sI2241
I1
sI2242
I1
sI2243
I1
sI2244
I1
sI2246
I1
sI2249
I1
sI2250
I1
sI2251
I1
sI2253
I1
sI2254
I1
sI2256
I1
sI2257
I1
sI2258
I1
sI2259
I1
sI2260
I1
sI2261
I1
sI2262
I1
sI2263
I1
sI2264
I1
sI2266
I1
sI2267
I1
sI2268
I1
sI2271
I1
sI2272
I1
sI2273
I1
sI2274
I1
sI2275
I1
sI284369
I1
sI2280
I1
sI2281
I1
sI2287
I1
sI2288
I1
sI2289
I1
sI284371
I1
sI140832
I1
sI22990
I1
sI2299
I1
sI2305
I1
sI2308
I1
sI493829
I1
sI133383
I1
sI2313
I1
sI2314
I1
sI2316
I1
sI2317
I1
sI2318
I1
sI2319
I1
sI2321
I1
sI2322
I1
sI2323
I1
sI2324
I1
sI2326
I1
sI2327
I1
sI2328
I1
sI2329
I1
sI2330
I1
sI2332
I1
sI2334
I1
sI2335
I1
sI493860
I1
sI22929
I1
sI133418
I1
sI493869
I1
sI2350
I1
sI2352
I1
sI2354
I1
sI2355
I1
sI2356
I1
sI2395
I1
sI157574
I1
sI133482
I1
sI402
I1
sI23446
I1
sI133491
I1
sI100996842
I1
sI2444
I1
sI22995
I1
sI133522
I1
sI55024
I1
sI2475
I1
sI2483
I1
sI133558
I1
sI2491
I1
sI2492
I1
sI2494
I1
sI166336
I1
sI284406
I1
sI100141515
I1
sI166348
I1
sI133584
I1
sI2515
I1
sI2517
I1
sI2521
I1
sI2523
I1
sI2528
I1
sI2530
I1
sI2531
I1
sI2532
I1
sI2533
I1
sI2534
I1
sI2537
I1
sI2538
I1
sI2539
I1
sI2542
I1
sI2547
I1
sI2549
I1
sI2550
I1
sI2553
I1
sI2555
I1
sI2556
I1
sI2557
I1
sI2558
I1
sI2560
I1
sI2561
I1
sI2562
I1
sI2563
I1
sI2564
I1
sI2565
I1
sI2566
I1
sI2567
I1
sI2568
I1
sI2569
I1
sI2570
I1
sI2571
I1
sI2580
I1
sI2581
I1
sI2583
I1
sI202500
I1
sI2587
I1
sI2588
I1
sI2590
I1
sI2592
I1
sI2593
I1
sI2595
I1
sI2596
I1
sI2597
I1
sI199221
I1
sI133686
I1
sI199223
I1
sI133688
I1
sI2617
I1
sI2618
I1
sI2620
I1
sI2622
I1
sI2623
I1
sI2624
I1
sI2625
I1
sI2626
I1
sI284427
I1
sI2628
I1
sI2629
I1
sI2631
I1
sI2635
I1
sI2636
I1
sI2637
I1
sI2638
I1
sI2639
I1
sI2642
I1
sI2643
I1
sI2645
I1
sI2646
I1
sI2648
I1
sI2649
I1
sI2651
I1
sI2653
I1
sI2661
I1
sI2665
I1
sI2668
I1
sI2669
I1
sI2670
I1
sI65981
I1
sI2673
I1
sI133746
I1
sI2675
I1
sI2677
I1
sI2683
I1
sI2686
I1
sI2687
I1
sI2688
I1
sI2690
I1
sI2691
I1
sI2692
I1
sI2693
I1
sI2694
I1
sI2696
I1
sI55063
I1
sI2703
I1
sI100652824
I1
sI84107
I1
sI158830
I1
sI2710
I1
sI2719
I1
sI2720
I1
sI2729
I1
sI2730
I1
sI2733
I1
sI2734
I1
sI2735
I1
sI2736
I1
sI2737
I1
sI2740
I1
sI2741
I1
sI2742
I1
sI2743
I1
sI2744
I1
sI2746
I1
sI136991
I1
sI2760
I1
sI2762
I1
sI2766
I1
sI2768
I1
sI2770
I1
sI2771
I1
sI2774
I1
sI2775
I1
sI2776
I1
sI2778
I1
sI2781
I1
sI2782
I1
sI2784
I1
sI22932
I1
sI2796
I1
sI466
I1
sI2798
I1
sI2800
I1
sI2801
I1
sI2802
I1
sI2803
I1
sI2806
I1
sI166647
I1
sI2813
I1
sI2817
I1
sI2819
I1
sI2820
I1
sI2821
I1
sI2822
I1
sI2823
I1
sI2824
I1
sI2830
I1
sI91749
I1
sI2833
I1
sI2835
I1
sI2840
I1
sI2842
I1
sI2859
I1
sI2863
I1
sI2865
I1
sI2868
I1
sI2869
I1
sI2870
I1
sI2872
I1
sI2873
I1
sI2876
I1
sI2879
I1
sI2880
I1
sI2885
I1
sI2886
I1
sI2887
I1
sI2888
I1
sI2889
I1
sI2890
I1
sI2891
I1
sI2892
I1
sI2893
I1
sI2894
I1
sI2895
I1
sI2897
I1
sI2898
I1
sI2900
I1
sI2901
I1
sI2902
I1
sI2903
I1
sI2904
I1
sI2905
I1
sI2908
I1
sI2909
I1
sI2911
I1
sI2912
I1
sI2913
I1
sI2914
I1
sI2915
I1
sI2917
I1
sI2918
I1
sI60561
I1
sI2922
I1
sI2926
I1
sI2932
I1
sI2934
I1
sI2935
I1
sI2936
I1
sI2938
I1
sI2940
I1
sI2941
I1
sI2944
I1
sI166785
I1
sI2946
I1
sI2948
I1
sI2949
I1
sI494470
I1
sI2952
I1
sI166793
I1
sI2954
I1
sI2956
I1
sI2957
I1
sI2959
I1
sI2961
I1
sI2963
I1
sI2967
I1
sI2969
I1
sI2972
I1
sI2975
I1
sI2976
I1
sI2977
I1
sI2978
I1
sI284486
I1
sI2982
I1
sI2983
I1
sI166824
I1
sI2987
I1
sI2990
I1
sI2992
I1
sI2993
I1
sI2994
I1
sI2995
I1
sI2997
I1
sI2998
I1
sI2999
I1
sI3002
I1
sI3004
I1
sI501
I1
sI55709
I1
sI3017
I1
sI166863
I1
sI3026
I1
sI3028
I1
sI3029
I1
sI3032
I1
sI3033
I1
sI3034
I1
sI3035
I1
sI3036
I1
sI3038
I1
sI134121
I1
sI3050
I1
sI3054
I1
sI3055
I1
sI3059
I1
sI3061
I1
sI3062
I1
sI3065
I1
sI3066
I1
sI3067
I1
sI3068
I1
sI3069
I1
sI3070
I1
sI3071
I1
sI3073
I1
sI3074
I1
sI3075
I1
sI3077
I1
sI3078
I1
sI3080
I1
sI3081
I1
sI3082
I1
sI3083
I1
sI3084
I1
sI166929
I1
sI3090
I1
sI3091
I1
sI3092
I1
sI3093
I1
sI3094
I1
sI3096
I1
sI3098
I1
sI3099
I1
sI3101
I1
sI3104
I1
sI199713
I1
sI3106
I1
sI3110
I1
sI199720
I1
sI3117
I1
sI3119
I1
sI3120
I1
sI203054
I1
sI3127
I1
sI166968
I1
sI3131
I1
sI3133
I1
sI3134
I1
sI199745
I1
sI199746
I1
sI166979
I1
sI3140
I1
sI3141
I1
sI3145
I1
sI134218
I1
sI3149
I1
sI3150
I1
sI3155
I1
sI3156
I1
sI3157
I1
sI3158
I1
sI3159
I1
sI3161
I1
sI3163
I1
sI3164
I1
sI3166
I1
sI199777
I1
sI3170
I1
sI3172
I1
sI3174
I1
sI131601
I1
sI3176
I1
sI3177
I1
sI3178
I1
sI3181
I1
sI3182
I1
sI3183
I1
sI3184
I1
sI3187
I1
sI3189
I1
sI3190
I1
sI3191
I1
sI3192
I1
sI134265
I1
sI3195
I1
sI3198
I1
sI3212
I1
sI134285
I1
sI3216
I1
sI3218
I1
sI3223
I1
sI3231
I1
sI3233
I1
sI3234
I1
sI6001
I1
sI3240
I1
sI3241
I1
sI3242
I1
sI3248
I1
sI199857
I1
sI3257
I1
sI199870
I1
sI3265
I1
sI3267
I1
sI3268
I1
sI3270
I1
sI3273
I1
sI3274
I1
sI3275
I1
sI3276
I1
sI3283
I1
sI134359
I1
sI55757
I1
sI3292
I1
sI3293
I1
sI3295
I1
sI3297
I1
sI3298
I1
sI3299
I1
sI3300
I1
sI3301
I1
sI284541
I1
sI3312
I1
sI167153
I1
sI3320
I1
sI3321
I1
sI3326
I1
sI3337
I1
sI3338
I1
sI3340
I1
sI284546
I1
sI199953
I1
sI3356
I1
sI134429
I1
sI3358
I1
sI3359
I1
sI3360
I1
sI3363
I1
sI3364
I1
sI55174
I1
sI51305
I1
sI3371
I1
sI3373
I1
sI3382
I1
sI3385
I1
sI3386
I1
sI167227
I1
sI3394
I1
sI3396
I1
sI3397
I1
sI200010
I1
sI200014
I1
sI3416
I1
sI3418
I1
sI3419
I1
sI3420
I1
sI3421
I1
sI3422
I1
sI3423
I1
sI3425
I1
sI3426
I1
sI200035
I1
sI3428
I1
sI3429
I1
sI3430
I1
sI3431
I1
sI3434
I1
sI3437
I1
sI55762
I1
sI134526
I1
sI3455
I1
sI3459
I1
sI3460
I1
sI200081
I1
sI3475
I1
sI3476
I1
sI134549
I1
sI3479
I1
sI3480
I1
sI3481
I1
sI3483
I1
sI3485
I1
sI3486
I1
sI3489
I1
sI3490
I1
sI55764
I1
sI3508
I1
sI3516
I1
sI167359
I1
sI200132
I1
sI55765
I1
sI55203
I1
sI200150
I1
sI3543
I1
sI3547
I1
sI3551
I1
sI3553
I1
sI3554
I1
sI3556
I1
sI3557
I1
sI3558
I1
sI3559
I1
sI93436
I1
sI3563
I1
sI200172
I1
sI3565
I1
sI3566
I1
sI3567
I1
sI3568
I1
sI3569
I1
sI3570
I1
sI3572
I1
sI3574
I1
sI3575
I1
sI200186
I1
sI3581
I1
sI597
I1
sI3589
I1
sI3594
I1
sI3595
I1
sI200205
I1
sI3600
I1
sI3601
I1
sI3603
I1
sI3604
I1
sI3606
I1
sI3608
I1
sI3609
I1
sI3611
I1
sI3612
I1
sI3613
I1
sI3614
I1
sI3615
I1
sI3617
I1
sI3619
I1
sI3621
I1
sI3622
I1
sI3624
I1
sI3631
I1
sI3632
I1
sI3633
I1
sI3635
I1
sI3636
I1
sI3638
I1
sI3640
I1
sI3643
I1
sI3646
I1
sI3652
I1
sI3654
I1
sI3655
I1
sI134728
I1
sI388364
I1
sI3658
I1
sI3659
I1
sI3661
I1
sI3662
I1
sI3663
I1
sI3664
I1
sI3665
I1
sI3669
I1
sI3670
I1
sI3674
I1
sI3675
I1
sI3676
I1
sI23036
I1
sI3679
I1
sI3681
I1
sI3682
I1
sI3683
I1
sI3684
I1
sI3685
I1
sI3687
I1
sI3688
I1
sI3689
I1
sI3691
I1
sI3692
I1
sI3693
I1
sI3694
I1
sI3695
I1
sI3696
I1
sI3697
I1
sI3699
I1
sI3700
I1
sI3702
I1
sI3703
I1
sI3704
I1
sI3705
I1
sI3706
I1
sI3707
I1
sI200316
I1
sI3709
I1
sI3710
I1
sI3712
I1
sI3714
I1
sI167555
I1
sI3716
I1
sI3717
I1
sI3718
I1
sI3720
I1
sI3728
I1
sI3730
I1
sI3732
I1
sI3735
I1
sI3737
I1
sI3746
I1
sI3747
I1
sI3748
I1
sI3749
I1
sI3750
I1
sI3751
I1
sI3752
I1
sI3753
I1
sI3756
I1
sI3757
I1
sI3758
I1
sI3760
I1
sI200373
I1
sI3767
I1
sI3769
I1
sI3773
I1
sI3775
I1
sI3776
I1
sI3777
I1
sI3778
I1
sI3780
I1
sI3781
I1
sI3782
I1
sI3783
I1
sI3784
I1
sI3785
I1
sI3786
I1
sI3787
I1
sI3792
I1
sI200403
I1
sI3796
I1
sI3797
I1
sI23040
I1
sI3799
I1
sI3800
I1
sI3801
I1
sI3805
I1
sI159013
I1
sI3812
I1
sI3815
I1
sI200424
I1
sI3817
I1
sI3818
I1
sI3821
I1
sI3823
I1
sI3824
I1
sI3827
I1
sI3831
I1
sI3833
I1
sI3834
I1
sI3835
I1
sI3836
I1
sI3837
I1
sI3839
I1
sI3841
I1
sI3842
I1
sI3845
I1
sI51411
I1
sI3855
I1
sI3856
I1
sI3858
I1
sI3860
I1
sI3866
I1
sI55258
I1
sI3883
I1
sI3885
I1
sI23043
I1
sI3891
I1
sI3892
I1
sI3895
I1
sI3897
I1
sI3899
I1
sI197258
I1
sI3902
I1
sI3903
I1
sI3904
I1
sI3906
I1
sI651
I1
sI3910
I1
sI3912
I1
sI3914
I1
sI3916
I1
sI3918
I1
sI3920
I1
sI3921
I1
sI3925
I1
sI3927
I1
sI3930
I1
sI3932
I1
sI3933
I1
sI3938
I1
sI3939
I1
sI3945
I1
sI3948
I1
sI3949
I1
sI3952
I1
sI3953
I1
sI3954
I1
sI3955
I1
sI3958
I1
sI3960
I1
sI3964
I1
sI3965
I1
sI200576
I1
sI55275
I1
sI3972
I1
sI3973
I1
sI3976
I1
sI3977
I1
sI3978
I1
sI155184
I1
sI3980
I1
sI3981
I1
sI3982
I1
sI3983
I1
sI3984
I1
sI3985
I1
sI3987
I1
sI3988
I1
sI55278
I1
sI3990
I1
sI3991
I1
sI3992
I1
sI3993
I1
sI3995
I1
sI3996
I1
sI167838
I1
sI4000
I1
sI4001
I1
sI4004
I1
sI4005
I1
sI4007
I1
sI4008
I1
sI4009
I1
sI4010
I1
sI4012
I1
sI4013
I1
sI4015
I1
sI4016
I1
sI4025
I1
sI4026
I1
sI4033
I1
sI4034
I1
sI4037
I1
sI4038
I1
sI4040
I1
sI4041
I1
sI4045
I1
sI4046
I1
sI4047
I1
sI4048
I1
sI4050
I1
sI4051
I1
sI4052
I1
sI4053
I1
sI4054
I1
sI4055
I1
sI4057
I1
sI4058
I1
sI4059
I1
sI4062
I1
sI4063
I1
sI4064
I1
sI135138
I1
sI4067
I1
sI4068
I1
sI4071
I1
sI4074
I1
sI4076
I1
sI4077
I1
sI4084
I1
sI4087
I1
sI4088
I1
sI4091
I1
sI4092
I1
sI4093
I1
sI4094
I1
sI4099
I1
sI4103
I1
sI339287
I1
sI4110
I1
sI93974
I1
sI4117
I1
sI4118
I1
sI200728
I1
sI4121
I1
sI4122
I1
sI4123
I1
sI4124
I1
sI4125
I1
sI200734
I1
sI4128
I1
sI4129
I1
sI4130
I1
sI4131
I1
sI4133
I1
sI4134
I1
sI4135
I1
sI4137
I1
sI4139
I1
sI4140
I1
sI4141
I1
sI4143
I1
sI4145
I1
sI4147
I1
sI4149
I1
sI4150
I1
sI4152
I1
sI4154
I1
sI4155
I1
sI135228
I1
sI4162
I1
sI4163
I1
sI4168
I1
sI4170
I1
sI4172
I1
sI4174
I1
sI4176
I1
sI135250
I1
sI4179
I1
sI692312
I1
sI4185
I1
sI4188
I1
sI4190
I1
sI4191
I1
sI4192
I1
sI4193
I1
sI4194
I1
sI4199
I1
sI4200
I1
sI4201
I1
sI200810
I1
sI4204
I1
sI4205
I1
sI4208
I1
sI4209
I1
sI4210
I1
sI4211
I1
sI4212
I1
sI4214
I1
sI4215
I1
sI4216
I1
sI4217
I1
sI4218
I1
sI4221
I1
sI4222
I1
sI135295
I1
sI4224
I1
sI4225
I1
sI4232
I1
sI4233
I1
sI4234
I1
sI200844
I1
sI4237
I1
sI4238
I1
sI4239
I1
sI4240
I1
sI4241
I1
sI4242
I1
sI4248
I1
sI4249
I1
sI168090
I1
sI4253
I1
sI4254
I1
sI4255
I1
sI4256
I1
sI4257
I1
sI4258
I1
sI4261
I1
sI4267
I1
sI200879
I1
sI4277
I1
sI4281
I1
sI4284
I1
sI4285
I1
sI4286
I1
sI4287
I1
sI4289
I1
sI4291
I1
sI4292
I1
sI4293
I1
sI4294
I1
sI4295
I1
sI4298
I1
sI4299
I1
sI4300
I1
sI200909
I1
sI4302
I1
sI4303
I1
sI4306
I1
sI200916
I1
sI4312
I1
sI4313
I1
sI4317
I1
sI135398
I1
sI4327
I1
sI4329
I1
sI4331
I1
sI200942
I1
sI4335
I1
sI4336
I1
sI4337
I1
sI4338
I1
sI4340
I1
sI4343
I1
sI4345
I1
sI4350
I1
sI4351
I1
sI4352
I1
sI4354
I1
sI4355
I1
sI4356
I1
sI4357
I1
sI4358
I1
sI4359
I1
sI4361
I1
sI4363
I1
sI23059
I1
sI284723
I1
sI734
I1
sI4430
I1
sI4435
I1
sI4436
I1
sI4439
I1
sI4440
I1
sI120892
I1
sI23062
I1
sI55796
I1
sI4477
I1
sI4478
I1
sI4481
I1
sI4482
I1
sI266629
I1
sI4486
I1
sI4488
I1
sI4493
I1
sI203100
I1
sI164592
I1
sI4520
I1
sI4521
I1
sI4524
I1
sI201134
I1
sI4528
I1
sI266675
I1
sI201140
I1
sI4534
I1
sI4542
I1
sI4543
I1
sI4544
I1
sI4547
I1
sI4548
I1
sI201158
I1
sI168391
I1
sI4552
I1
sI759
I1
sI201164
I1
sI201176
I1
sI6223
I1
sI135644
I1
sI762
I1
sI266722
I1
sI4580
I1
sI4582
I1
sI266727
I1
sI121268
I1
sI4591
I1
sI4593
I1
sI4595
I1
sI4597
I1
sI4598
I1
sI4599
I1
sI4600
I1
sI4601
I1
sI4602
I1
sI4603
I1
sI4604
I1
sI4605
I1
sI4610
I1
sI168451
I1
sI4613
I1
sI4615
I1
sI4616
I1
sI201229
I1
sI4628
I1
sI4629
I1
sI93649
I1
sI4632
I1
sI201243
I1
sI4636
I1
sI4637
I1
sI4638
I1
sI4640
I1
sI4641
I1
sI4642
I1
sI4644
I1
sI201254
I1
sI4647
I1
sI4648
I1
sI4649
I1
sI4650
I1
sI4651
I1
sI201266
I1
sI4659
I1
sI4660
I1
sI4664
I1
sI4665
I1
sI4666
I1
sI168507
I1
sI4669
I1
sI4670
I1
sI4671
I1
sI4673
I1
sI4677
I1
sI4678
I1
sI4680
I1
sI4681
I1
sI4682
I1
sI4683
I1
sI201292
I1
sI4685
I1
sI201294
I1
sI4688
I1
sI4689
I1
sI4690
I1
sI201299
I1
sI4695
I1
sI201305
I1
sI4698
I1
sI153443
I1
sI4702
I1
sI168544
I1
sI4705
I1
sI4706
I1
sI4710
I1
sI4711
I1
sI4712
I1
sI4713
I1
sI4714
I1
sI4715
I1
sI4718
I1
sI4719
I1
sI4720
I1
sI4723
I1
sI4724
I1
sI4729
I1
sI23007
I1
sI4731
I1
sI4734
I1
sI4735
I1
sI4736
I1
sI4739
I1
sI4741
I1
sI4744
I1
sI4745
I1
sI4750
I1
sI4751
I1
sI4753
I1
sI4756
I1
sI164633
I1
sI55806
I1
sI4763
I1
sI4771
I1
sI4772
I1
sI4773
I1
sI4774
I1
sI6257
I1
sI4776
I1
sI4779
I1
sI4780
I1
sI399474
I1
sI4782
I1
sI4784
I1
sI4790
I1
sI4791
I1
sI4793
I1
sI799
I1
sI4796
I1
sI4798
I1
sI4799
I1
sI4800
I1
sI4801
I1
sI4802
I1
sI388555
I1
sI131873
I1
sI4808
I1
sI4809
I1
sI4810
I1
sI4811
I1
sI4814
I1
sI4815
I1
sI4817
I1
sI4818
I1
sI4820
I1
sI4821
I1
sI4824
I1
sI4826
I1
sI168667
I1
sI4828
I1
sI4829
I1
sI4830
I1
sI4831
I1
sI4832
I1
sI4833
I1
sI4835
I1
sI4836
I1
sI4839
I1
sI4841
I1
sI4842
I1
sI4843
I1
sI4846
I1
sI201456
I1
sI4849
I1
sI4850
I1
sI4851
I1
sI4853
I1
sI4854
I1
sI4857
I1
sI4858
I1
sI4861
I1
sI4862
I1
sI4863
I1
sI4864
I1
sI4867
I1
sI267012
I1
sI4869
I1
sI4881
I1
sI4882
I1
sI4883
I1
sI4889
I1
sI4891
I1
sI4892
I1
sI201501
I1
sI4897
I1
sI4898
I1
sI4899
I1
sI4901
I1
sI201514
I1
sI4907
I1
sI4908
I1
sI4909
I1
sI4913
I1
sI4914
I1
sI4915
I1
sI4916
I1
sI4919
I1
sI4920
I1
sI4921
I1
sI4923
I1
sI4925
I1
sI4926
I1
sI4927
I1
sI4928
I1
sI126432
I1
sI4931
I1
sI4935
I1
sI4938
I1
sI4939
I1
sI4940
I1
sI4942
I1
sI4946
I1
sI4947
I1
sI4948
I1
sI4952
I1
sI4953
I1
sI201562
I1
sI4957
I1
sI4967
I1
sI4968
I1
sI4969
I1
sI4973
I1
sI4976
I1
sI4978
I1
sI4983
I1
sI4986
I1
sI4987
I1
sI4988
I1
sI4992
I1
sI4995
I1
sI4998
I1
sI4999
I1
sI5000
I1
sI5001
I1
sI5002
I1
sI5003
I1
sI5008
I1
sI5009
I1
sI168850
I1
sI5015
I1
sI5017
I1
sI201626
I1
sI5019
I1
sI5023
I1
sI5024
I1
sI5025
I1
sI5026
I1
sI5027
I1
sI5029
I1
sI5031
I1
sI5033
I1
sI11079
I1
sI152926
I1
sI5046
I1
sI5047
I1
sI5048
I1
sI5049
I1
sI5050
I1
sI5051
I1
sI5053
I1
sI5054
I1
sI5058
I1
sI55816
I1
sI5063
I1
sI5064
I1
sI5066
I1
sI5067
I1
sI5069
I1
sI5071
I1
sI5073
I1
sI5074
I1
sI202915
I1
sI5076
I1
sI5077
I1
sI5078
I1
sI5079
I1
sI5080
I1
sI5081
I1
sI5082
I1
sI5087
I1
sI5090
I1
sI5091
I1
sI5092
I1
sI5094
I1
sI5095
I1
sI5096
I1
sI5097
I1
sI5098
I1
sI5099
I1
sI5100
I1
sI5101
I1
sI5105
I1
sI5106
I1
sI5108
I1
sI5110
I1
sI55466
I1
sI5119
I1
sI5122
I1
sI5125
I1
sI5126
I1
sI5127
I1
sI5128
I1
sI5129
I1
sI5132
I1
sI5133
I1
sI5134
I1
sI168975
I1
sI5136
I1
sI5137
I1
sI5138
I1
sI5139
I1
sI5140
I1
sI5141
I1
sI5142
I1
sI5143
I1
sI5144
I1
sI5145
I1
sI5146
I1
sI350383
I1
sI5148
I1
sI5150
I1
sI5151
I1
sI5152
I1
sI5153
I1
sI5154
I1
sI136227
I1
sI5156
I1
sI5158
I1
sI5159
I1
sI5160
I1
sI5162
I1
sI5163
I1
sI5164
I1
sI5165
I1
sI5167
I1
sI5168
I1
sI5169
I1
sI5170
I1
sI5172
I1
sI5174
I1
sI5175
I1
sI5178
I1
sI5184
I1
sI169026
I1
sI5187
I1
sI5188
I1
sI5189
I1
sI5190
I1
sI136263
I1
sI5192
I1
sI55027
I1
sI5195
I1
sI5196
I1
sI5198
I1
sI5199
I1
sI5201
I1
sI5202
I1
sI5203
I1
sI169044
I1
sI5205
I1
sI5207
I1
sI5208
I1
sI5209
I1
sI5210
I1
sI5211
I1
sI5212
I1
sI5213
I1
sI5214
I1
sI136288
I1
sI5217
I1
sI5218
I1
sI5223
I1
sI5225
I1
sI5226
I1
sI5228
I1
sI5229
I1
sI136306
I1
sI5236
I1
sI5238
I1
sI5239
I1
sI5241
I1
sI5244
I1
sI5245
I1
sI5250
I1
sI5251
I1
sI5252
I1
sI5253
I1
sI5255
I1
sI5256
I1
sI5257
I1
sI136332
I1
sI5261
I1
sI5264
I1
sI5267
I1
sI5268
I1
sI5269
I1
sI5270
I1
sI5271
I1
sI5272
I1
sI5273
I1
sI5275
I1
sI5276
I1
sI5277
I1
sI6341
I1
sI5281
I1
sI5283
I1
sI5286
I1
sI201895
I1
sI5288
I1
sI5289
I1
sI5291
I1
sI5292
I1
sI5293
I1
sI5294
I1
sI5295
I1
sI5297
I1
sI5298
I1
sI136371
I1
sI5300
I1
sI5303
I1
sI5305
I1
sI5306
I1
sI5308
I1
sI5311
I1
sI5313
I1
sI5315
I1
sI5316
I1
sI5317
I1
sI5318
I1
sI5321
I1
sI5322
I1
sI201931
I1
sI5324
I1
sI5325
I1
sI169166
I1
sI5327
I1
sI5328
I1
sI5329
I1
sI5330
I1
sI5331
I1
sI5332
I1
sI5333
I1
sI5334
I1
sI5335
I1
sI5337
I1
sI5338
I1
sI5340
I1
sI5345
I1
sI5348
I1
sI5349
I1
sI5351
I1
sI5352
I1
sI5354
I1
sI5356
I1
sI201965
I1
sI5358
I1
sI5359
I1
sI5360
I1
sI5361
I1
sI5362
I1
sI5364
I1
sI201973
I1
sI5367
I1
sI5368
I1
sI5371
I1
sI5372
I1
sI5373
I1
sI5376
I1
sI5378
I1
sI5393
I1
sI5394
I1
sI5395
I1
sI5396
I1
sI5407
I1
sI5408
I1
sI5409
I1
sI202018
I1
sI5413
I1
sI5414
I1
sI5420
I1
sI5422
I1
sI5423
I1
sI5424
I1
sI5425
I1
sI5426
I1
sI5427
I1
sI5429
I1
sI169270
I1
sI5431
I1
sI5434
I1
sI5435
I1
sI5437
I1
sI5439
I1
sI5442
I1
sI202051
I1
sI5445
I1
sI5449
I1
sI5450
I1
sI5451
I1
sI5452
I1
sI5460
I1
sI5463
I1
sI5465
I1
sI5467
I1
sI5468
I1
sI5469
I1
sI5471
I1
sI5475
I1
sI5476
I1
sI5478
I1
sI5493
I1
sI5494
I1
sI5495
I1
sI5498
I1
sI5499
I1
sI5501
I1
sI5502
I1
sI5504
I1
sI55829
I1
sI5506
I1
sI5510
I1
sI5511
I1
sI55831
I1
sI5518
I1
sI5519
I1
sI5520
I1
sI5521
I1
sI5522
I1
sI5523
I1
sI5524
I1
sI5525
I1
sI5526
I1
sI5527
I1
sI5528
I1
sI5529
I1
sI5530
I1
sI5531
I1
sI5532
I1
sI5533
I1
sI5536
I1
sI5537
I1
sI5538
I1
sI5539
I1
sI5542
I1
sI6385
I1
sI5545
I1
sI5546
I1
sI5547
I1
sI5550
I1
sI5552
I1
sI5553
I1
sI5554
I1
sI5558
I1
sI5562
I1
sI5563
I1
sI5565
I1
sI5566
I1
sI5567
I1
sI5570
I1
sI5571
I1
sI55833
I1
sI5573
I1
sI5575
I1
sI5576
I1
sI5577
I1
sI5578
I1
sI5579
I1
sI5580
I1
sI5581
I1
sI5582
I1
sI5583
I1
sI5584
I1
sI5585
I1
sI5586
I1
sI5587
I1
sI5588
I1
sI5589
I1
sI5590
I1
sI5592
I1
sI5593
I1
sI5595
I1
sI5596
I1
sI5598
I1
sI5599
I1
sI5600
I1
sI5601
I1
sI5602
I1
sI9639
I1
sI5604
I1
sI5605
I1
sI5606
I1
sI5607
I1
sI5608
I1
sI5609
I1
sI5610
I1
sI5611
I1
sI23169
I1
sI5617
I1
sI5618
I1
sI5620
I1
sI5621
I1
sI5624
I1
sI5625
I1
sI5627
I1
sI5629
I1
sI5630
I1
sI5631
I1
sI5634
I1
sI5635
I1
sI5636
I1
sI5638
I1
sI5639
I1
sI5641
I1
sI5644
I1
sI5645
I1
sI5646
I1
sI941
I1
sI5648
I1
sI5650
I1
sI5651
I1
sI5653
I1
sI5657
I1
sI23102
I1
sI5660
I1
sI5662
I1
sI5663
I1
sI5664
I1
sI497190
I1
sI5672
I1
sI151194
I1
sI5676
I1
sI5678
I1
sI5680
I1
sI5682
I1
sI5684
I1
sI5685
I1
sI5686
I1
sI5687
I1
sI5690
I1
sI55837
I1
sI5693
I1
sI5694
I1
sI5696
I1
sI5697
I1
sI22795
I1
sI5700
I1
sI5701
I1
sI5702
I1
sI5704
I1
sI5705
I1
sI5706
I1
sI5707
I1
sI5708
I1
sI5710
I1
sI5711
I1
sI5715
I1
sI5716
I1
sI5718
I1
sI5719
I1
sI5720
I1
sI5721
I1
sI5723
I1
sI5725
I1
sI5727
I1
sI5728
I1
sI5729
I1
sI388633
I1
sI5733
I1
sI5734
I1
sI5737
I1
sI5738
I1
sI5739
I1
sI5741
I1
sI5742
I1
sI957
I1
sI5744
I1
sI5745
I1
sI5746
I1
sI5747
I1
sI5753
I1
sI5754
I1
sI5756
I1
sI5757
I1
sI5763
I1
sI5764
I1
sI202374
I1
sI5768
I1
sI5770
I1
sI169611
I1
sI5774
I1
sI5775
I1
sI5777
I1
sI5778
I1
sI5781
I1
sI5782
I1
sI5783
I1
sI5786
I1
sI5787
I1
sI5788
I1
sI5789
I1
sI5791
I1
sI5792
I1
sI5793
I1
sI5794
I1
sI5795
I1
sI5796
I1
sI5797
I1
sI5798
I1
sI5799
I1
sI5800
I1
sI5801
I1
sI5802
I1
sI5803
I1
sI284958
I1
sI5817
I1
sI5818
I1
sI5819
I1
sI5822
I1
sI136895
I1
sI5824
I1
sI5825
I1
sI5826
I1
sI5829
I1
sI5830
I1
sI5831
I1
sI5832
I1
sI5833
I1
sI5836
I1
sI5837
I1
sI22820
I1
sI22821
I1
sI5858
I1
sI5859
I1
sI5860
I1
sI5861
I1
sI5862
I1
sI5863
I1
sI5866
I1
sI5867
I1
sI5868
I1
sI5869
I1
sI5870
I1
sI5871
I1
sI5872
I1
sI5874
I1
sI5878
I1
sI5879
I1
sI5880
I1
sI5881
I1
sI5883
I1
sI5884
I1
sI5886
I1
sI5887
I1
sI5888
I1
sI5889
I1
sI5890
I1
sI5891
I1
sI5892
I1
sI5893
I1
sI5894
I1
sI55596
I1
sI5898
I1
sI5899
I1
sI5900
I1
sI5901
I1
sI5902
I1
sI5905
I1
sI5906
I1
sI54753
I1
sI5908
I1
sI5909
I1
sI5910
I1
sI5913
I1
sI5914
I1
sI5915
I1
sI5916
I1
sI5918
I1
sI5919
I1
sI5921
I1
sI5922
I1
sI5923
I1
sI5924
I1
sI5925
I1
sI5926
I1
sI5928
I1
sI5929
I1
sI5930
I1
sI5931
I1
sI5932
I1
sI5933
I1
sI5934
I1
sI5936
I1
sI5937
I1
sI5939
I1
sI55604
I1
sI5947
I1
sI5950
I1
sI202559
I1
sI169792
I1
sI5955
I1
sI5962
I1
sI55607
I1
sI5966
I1
sI645432
I1
sI5970
I1
sI5971
I1
sI5973
I1
sI55609
I1
sI5976
I1
sI5977
I1
sI5978
I1
sI5979
I1
sI5981
I1
sI5982
I1
sI5983
I1
sI5985
I1
sI5986
I1
sI5988
I1
sI5989
I1
sI5990
I1
sI5991
I1
sI5992
I1
sI5993
I1
sI5995
I1
sI5998
I1
sI5999
I1
sI6000
I1
sI169841
I1
sI6002
I1
sI6005
I1
sI6006
I1
sI6007
I1
sI6009
I1
sI6011
I1
sI6013
I1
sI6014
I1
sI6016
I1
sI6017
I1
sI6018
I1
sI6019
I1
sI317761
I1
sI22850
I1
sI6468
I1
sI6045
I1
sI6046
I1
sI6047
I1
sI6049
I1
sI6051
I1
sI100129094
I1
sI22856
I1
sI22858
I1
sI23116
I1
sI55627
I1
sI6091
I1
sI6092
I1
sI6093
I1
sI6095
I1
sI6097
I1
sI6098
I1
sI6100
I1
sI6101
I1
sI6103
I1
sI22863
I1
sI55906
I1
sI22864
I1
sI6118
I1
sI6120
I1
sI6121
I1
sI6122
I1
sI6123
I1
sI55634
I1
sI43849
I1
sI6128
I1
sI6129
I1
sI6132
I1
sI6134
I1
sI6135
I1
sI6137
I1
sI6138
I1
sI6139
I1
sI6141
I1
sI6143
I1
sI6150
I1
sI6158
I1
sI6160
I1
sI22872
I1
sI6173
I1
sI6176
I1
sI6491
I1
sI6185
I1
sI6188
I1
sI6189
I1
sI6192
I1
sI6195
I1
sI6196
I1
sI6197
I1
sI6198
I1
sI6199
I1
sI6203
I1
sI6208
I1
sI6209
I1
sI22881
I1
sI6217
I1
sI100505679
I1
sI6224
I1
sI22883
I1
sI6229
I1
sI6235
I1
sI6239
I1
sI6240
I1
sI6241
I1
sI6242
I1
sI6249
I1
sI203111
I1
sI6252
I1
sI6253
I1
sI6256
I1
sI399473
I1
sI6258
I1
sI6259
I1
sI22890
I1
sI6272
I1
sI22891
I1
sI6276
I1
sI6279
I1
sI100505741
I1
sI55661
I1
sI6289
I1
sI137362
I1
sI6293
I1
sI6294
I1
sI6295
I1
sI399512
I1
sI6297
I1
sI6299
I1
sI6300
I1
sI6301
I1
sI6302
I1
sI6303
I1
sI6304
I1
sI6305
I1
sI6307
I1
sI6311
I1
sI6314
I1
sI22898
I1
sI6318
I1
sI137392
I1
sI6322
I1
sI6323
I1
sI6324
I1
sI6326
I1
sI6328
I1
sI22900
I1
sI6330
I1
sI6331
I1
sI6334
I1
sI6335
I1
sI6336
I1
sI6337
I1
sI6338
I1
sI6339
I1
sI55670
I1
sI6342
I1
sI6343
I1
sI6344
I1
sI6345
I1
sI22903
I1
sI6352
I1
sI6358
I1
sI6361
I1
sI6364
I1
sI6366
I1
sI6368
I1
sI6370
I1
sI22907
I1
sI6373
I1
sI6376
I1
sI22908
I1
sI6382
I1
sI6383
I1
sI100505841
I1
sI6386
I1
sI6387
I1
sI6388
I1
sI6389
I1
sI137695
I1
sI6391
I1
sI6392
I1
sI55679
I1
sI6396
I1
sI6397
I1
sI6399
I1
sI6400
I1
sI6403
I1
sI6404
I1
sI6405
I1
sI55681
I1
sI6414
I1
sI6416
I1
sI6418
I1
sI6419
I1
sI137492
I1
sI6421
I1
sI22916
I1
sI6426
I1
sI6429
I1
sI6430
I1
sI22917
I1
sI6432
I1
sI6433
I1
sI6434
I1
sI149699
I1
sI6439
I1
sI6440
I1
sI6441
I1
sI6442
I1
sI55687
I1
sI6444
I1
sI6445
I1
sI6446
I1
sI6447
I1
sI399664
I1
sI399665
I1
sI6450
I1
sI6451
I1
sI6452
I1
sI6453
I1
sI203062
I1
sI399671
I1
sI6456
I1
sI6457
I1
sI203068
I1
sI203069
I1
sI6462
I1
sI6464
I1
sI203074
I1
sI55691
I1
sI203076
I1
sI6469
I1
sI6470
I1
sI399687
I1
sI6472
I1
sI6473
I1
sI6474
I1
sI6476
I1
sI399693
I1
sI399694
I1
sI6480
I1
sI6484
I1
sI6487
I1
sI6489
I1
sI6490
I1
sI55695
I1
sI6492
I1
sI6493
I1
sI203102
I1
sI6495
I1
sI6497
I1
sI6498
I1
sI6499
I1
sI6500
I1
sI6502
I1
sI6503
I1
sI6504
I1
sI6505
I1
sI6506
I1
sI6507
I1
sI6508
I1
sI6509
I1
sI6510
I1
sI6511
I1
sI6512
I1
sI6514
I1
sI6518
I1
sI6519
I1
sI6520
I1
sI6521
I1
sI6522
I1
sI6523
I1
sI6524
I1
sI6525
I1
sI55701
I1
sI6528
I1
sI132160
I1
sI6530
I1
sI170371
I1
sI6533
I1
sI6534
I1
sI6535
I1
sI6536
I1
sI6538
I1
sI154007
I1
sI6540
I1
sI6541
I1
sI6542
I1
sI6543
I1
sI170384
I1
sI22936
I1
sI6546
I1
sI6547
I1
sI6548
I1
sI51501
I1
sI6550
I1
sI6553
I1
sI170394
I1
sI6556
I1
sI6557
I1
sI6558
I1
sI6559
I1
sI6560
I1
sI6561
I1
sI6563
I1
sI6565
I1
sI6568
I1
sI6569
I1
sI6570
I1
sI6573
I1
sI6574
I1
sI6575
I1
sI6576
I1
sI6578
I1
sI6579
I1
sI6580
I1
sI6581
I1
sI6583
I1
sI6584
I1
sI6586
I1
sI203197
I1
sI100506049
I1
sI6594
I1
sI6595
I1
sI6596
I1
sI6597
I1
sI6598
I1
sI6599
I1
sI6601
I1
sI6602
I1
sI6603
I1
sI6604
I1
sI6606
I1
sI6607
I1
sI6608
I1
sI6609
I1
sI6610
I1
sI6611
I1
sI6612
I1
sI6613
I1
sI6614
I1
sI6616
I1
sI55716
I1
sI6620
I1
sI6621
I1
sI6622
I1
sI285093
I1
sI6625
I1
sI6628
I1
sI203238
I1
sI6632
I1
sI6633
I1
sI6635
I1
sI6637
I1
sI6640
I1
sI6641
I1
sI6642
I1
sI6643
I1
sI6646
I1
sI22953
I1
sI6648
I1
sI6650
I1
sI6651
I1
sI203260
I1
sI6653
I1
sI6654
I1
sI29068
I1
sI6660
I1
sI170506
I1
sI6667
I1
sI6668
I1
sI6670
I1
sI6671
I1
sI6672
I1
sI6674
I1
sI6675
I1
sI6676
I1
sI6677
I1
sI6678
I1
sI6683
I1
sI6687
I1
sI6688
I1
sI6689
I1
sI6691
I1
sI6692
I1
sI399909
I1
sI6696
I1
sI51506
I1
sI6708
I1
sI6709
I1
sI6710
I1
sI6711
I1
sI6712
I1
sI6713
I1
sI6714
I1
sI6715
I1
sI6716
I1
sI6717
I1
sI6718
I1
sI6720
I1
sI6721
I1
sI6722
I1
sI6723
I1
sI6726
I1
sI6727
I1
sI6728
I1
sI6729
I1
sI6730
I1
sI6731
I1
sI399949
I1
sI6734
I1
sI6738
I1
sI6742
I1
sI55737
I1
sI6744
I1
sI6745
I1
sI6746
I1
sI6747
I1
sI6748
I1
sI6749
I1
sI55739
I1
sI6760
I1
sI137835
I1
sI6764
I1
sI6767
I1
sI6769
I1
sI6770
I1
sI6772
I1
sI6773
I1
sI6774
I1
sI6775
I1
sI6776
I1
sI6777
I1
sI6778
I1
sI6779
I1
sI6780
I1
sI170622
I1
sI6783
I1
sI22976
I1
sI6786
I1
sI6787
I1
sI6788
I1
sI6789
I1
sI6790
I1
sI55745
I1
sI6792
I1
sI6793
I1
sI6794
I1
sI6795
I1
sI137868
I1
sI6801
I1
sI6804
I1
sI6809
I1
sI6810
I1
sI6811
I1
sI6812
I1
sI6813
I1
sI137886
I1
sI6815
I1
sI6817
I1
sI203427
I1
sI6820
I1
sI6821
I1
sI6829
I1
sI6830
I1
sI23141
I1
sI6832
I1
sI6833
I1
sI6834
I1
sI6835
I1
sI6836
I1
sI6837
I1
sI6838
I1
sI6839
I1
sI6840
I1
sI6843
I1
sI6844
I1
sI6845
I1
sI6847
I1
sI170689
I1
sI6850
I1
sI170691
I1
sI170692
I1
sI6853
I1
sI6854
I1
sI6856
I1
sI400073
I1
sI6861
I1
sI6862
I1
sI6863
I1
sI55876
I1
sI6866
I1
sI6867
I1
sI6868
I1
sI6869
I1
sI6871
I1
sI6872
I1
sI6873
I1
sI6875
I1
sI6877
I1
sI6878
I1
sI6882
I1
sI6883
I1
sI6885
I1
sI6886
I1
sI22993
I1
sI6890
I1
sI6891
I1
sI137964
I1
sI137682
I1
sI6894
I1
sI6895
I1
sI6897
I1
sI137970
I1
sI6899
I1
sI6900
I1
sI6901
I1
sI6902
I1
sI6904
I1
sI6905
I1
sI6906
I1
sI6907
I1
sI6908
I1
sI6909
I1
sI6910
I1
sI22997
I1
sI6913
I1
sI203522
I1
sI203523
I1
sI6916
I1
sI6917
I1
sI6919
I1
sI6920
I1
sI6921
I1
sI137994
I1
sI6923
I1
sI6925
I1
sI6926
I1
sI6927
I1
sI6928
I1
sI6929
I1
sI6932
I1
sI6934
I1
sI6935
I1
sI6936
I1
sI6938
I1
sI203547
I1
sI6940
I1
sI55770
I1
sI6942
I1
sI6944
I1
sI6945
I1
sI6948
I1
sI6949
I1
sI6950
I1
sI6953
I1
sI6954
I1
sI23005
I1
sI100506422
I1
sI6623
I1
sI138046
I1
sI6975
I1
sI23008
I1
sI138050
I1
sI6991
I1
sI6992
I1
sI6993
I1
sI6996
I1
sI6997
I1
sI23012
I1
sI7004
I1
sI7006
I1
sI55781
I1
sI7008
I1
sI7009
I1
sI170850
I1
sI7011
I1
sI7013
I1
sI7014
I1
sI7015
I1
sI7016
I1
sI7018
I1
sI7019
I1
sI7020
I1
sI7021
I1
sI7023
I1
sI7024
I1
sI7025
I1
sI7026
I1
sI7027
I1
sI7029
I1
sI7030
I1
sI7035
I1
sI7036
I1
sI7037
I1
sI7038
I1
sI7039
I1
sI7040
I1
sI7041
I1
sI400258
I1
sI55787
I1
sI7044
I1
sI7046
I1
sI7047
I1
sI7048
I1
sI7049
I1
sI7050
I1
sI7052
I1
sI7054
I1
sI7057
I1
sI7059
I1
sI7060
I1
sI727957
I1
sI7064
I1
sI7066
I1
sI7067
I1
sI7068
I1
sI7071
I1
sI7072
I1
sI7073
I1
sI7074
I1
sI7075
I1
sI7076
I1
sI23025
I1
sI7080
I1
sI7082
I1
sI7083
I1
sI7084
I1
sI170482
I1
sI7086
I1
sI7087
I1
sI7088
I1
sI7089
I1
sI7090
I1
sI7091
I1
sI7092
I1
sI7095
I1
sI285172
I1
sI7098
I1
sI7099
I1
sI7101
I1
sI7105
I1
sI7106
I1
sI7107
I1
sI100506564
I1
sI7109
I1
sI7110
I1
sI7112
I1
sI7113
I1
sI23031
I1
sI170959
I1
sI51520
I1
sI170961
I1
sI7123
I1
sI7125
I1
sI7126
I1
sI138199
I1
sI7128
I1
sI7133
I1
sI7136
I1
sI7138
I1
sI7139
I1
sI7140
I1
sI7143
I1
sI285180
I1
sI728047
I1
sI7153
I1
sI7155
I1
sI7156
I1
sI7157
I1
sI7158
I1
sI7159
I1
sI7161
I1
sI7163
I1
sI7164
I1
sI7165
I1
sI7167
I1
sI138240
I1
sI138241
I1
sI7170
I1
sI7171
I1
sI7172
I1
sI7173
I1
sI7174
I1
sI55809
I1
sI171017
I1
sI7178
I1
sI171019
I1
sI7180
I1
sI7181
I1
sI7182
I1
sI138255
I1
sI171024
I1
sI7185
I1
sI7186
I1
sI7187
I1
sI7188
I1
sI7189
I1
sI100506650
I1
sI100506658
I1
sI7203
I1
sI285190
I1
sI55815
I1
sI7216
I1
sI728113
I1
sI7220
I1
sI728118
I1
sI7223
I1
sI7225
I1
sI7226
I1
sI7227
I1
sI55819
I1
sI138311
I1
sI388962
I1
sI7247
I1
sI7248
I1
sI7249
I1
sI203859
I1
sI7252
I1
sI7253
I1
sI100506127
I1
sI7260
I1
sI154091
I1
sI7264
I1
sI7266
I1
sI7267
I1
sI7268
I1
sI7270
I1
sI23057
I1
sI7272
I1
sI7274
I1
sI7275
I1
sI7277
I1
sI100506736
I1
sI285203
I1
sI7284
I1
sI7286
I1
sI7287
I1
sI7288
I1
sI7289
I1
sI400506
I1
sI165055
I1
sI7292
I1
sI7293
I1
sI7294
I1
sI7295
I1
sI7296
I1
sI7297
I1
sI728194
I1
sI7299
I1
sI7301
I1
sI7305
I1
sI7307
I1
sI7311
I1
sI7317
I1
sI7318
I1
sI7319
I1
sI7321
I1
sI7322
I1
sI7323
I1
sI7324
I1
sI7325
I1
sI7327
I1
sI7328
I1
sI7329
I1
sI23067
I1
sI7332
I1
sI7334
I1
sI7335
I1
sI7336
I1
sI7337
I1
sI7341
I1
sI7342
I1
sI7343
I1
sI7347
I1
sI7350
I1
sI7352
I1
sI7353
I1
sI7355
I1
sI138428
I1
sI7357
I1
sI7358
I1
sI7360
I1
sI23072
I1
sI7363
I1
sI7364
I1
sI400581
I1
sI7369
I1
sI7371
I1
sI7373
I1
sI7374
I1
sI7375
I1
sI7376
I1
sI7378
I1
sI23075
I1
sI7380
I1
sI7381
I1
sI55844
I1
sI7388
I1
sI7389
I1
sI7390
I1
sI7391
I1
sI7392
I1
sI23078
I1
sI728294
I1
sI7401
I1
sI7403
I1
sI7404
I1
sI7405
I1
sI7407
I1
sI7408
I1
sI7409
I1
sI7410
I1
sI7411
I1
sI7412
I1
sI170463
I1
sI7417
I1
sI7419
I1
sI7421
I1
sI7422
I1
sI7423
I1
sI7428
I1
sI7430
I1
sI7432
I1
sI7433
I1
sI7434
I1
sI7436
I1
sI7439
I1
sI7441
I1
sI7443
I1
sI7444
I1
sI55854
I1
sI23087
I1
sI400668
I1
sI7453
I1
sI7454
I1
sI7455
I1
sI7458
I1
sI7461
I1
sI728358
I1
sI23089
I1
sI7465
I1
sI7466
I1
sI7468
I1
sI7469
I1
sI7474
I1
sI23091
I1
sI7476
I1
sI7477
I1
sI7478
I1
sI7480
I1
sI7481
I1
sI7482
I1
sI7483
I1
sI7484
I1
sI7485
I1
sI7486
I1
sI55861
I1
sI7490
I1
sI23094
I1
sI7494
I1
sI7498
I1
sI7499
I1
sI7504
I1
sI7507
I1
sI7508
I1
sI7511
I1
sI7514
I1
sI7518
I1
sI55898
I1
sI7525
I1
sI7529
I1
sI7531
I1
sI7534
I1
sI7535
I1
sI7536
I1
sI7539
I1
sI400757
I1
sI7543
I1
sI7544
I1
sI728441
I1
sI7546
I1
sI7547
I1
sI171389
I1
sI7551
I1
sI171392
I1
sI7553
I1
sI7555
I1
sI7559
I1
sI7562
I1
sI389015
I1
sI7564
I1
sI7565
I1
sI7566
I1
sI138639
I1
sI7568
I1
sI7569
I1
sI51535
I1
sI7571
I1
sI7572
I1
sI7574
I1
sI7576
I1
sI400793
I1
sI7579
I1
sI7580
I1
sI7581
I1
sI7582
I1
sI171425
I1
sI7586
I1
sI7587
I1
sI7589
I1
sI7592
I1
sI7593
I1
sI7594
I1
sI7596
I1
sI7597
I1
sI100507055
I1
sI400823
I1
sI204219
I1
sI55901
I1
sI399947
I1
sI7620
I1
sI7625
I1
sI7626
I1
sI7627
I1
sI7629
I1
sI6733
I1
sI7633
I1
sI7638
I1
sI7639
I1
sI100507096
I1
sI171483
I1
sI7644
I1
sI55888
I1
sI138724
I1
sI55890
I1
sI387836
I1
sI728568
I1
sI7673
I1
sI400891
I1
sI7678
I1
sI154197
I1
sI728586
I1
sI7692
I1
sI7694
I1
sI728591
I1
sI7697
I1
sI7699
I1
sI400916
I1
sI728597
I1
sI7702
I1
sI7704
I1
sI55904
I1
sI7709
I1
sI7711
I1
sI7716
I1
sI171558
I1
sI400935
I1
sI23132
I1
sI728621
I1
sI7726
I1
sI7727
I1
sI7728
I1
sI56135
I1
sI7730
I1
sI7732
I1
sI7733
I1
sI400950
I1
sI7738
I1
sI728635
I1
sI7741
I1
sI7743
I1
sI7745
I1
sI7746
I1
sI7748
I1
sI7750
I1
sI121441
I1
sI7752
I1
sI7753
I1
sI7756
I1
sI7757
I1
sI7760
I1
sI7761
I1
sI7764
I1
sI728661
I1
sI7766
I1
sI7768
I1
sI7769
I1
sI7770
I1
sI7771
I1
sI7772
I1
sI219749
I1
sI7776
I1
sI7780
I1
sI7781
I1
sI7782
I1
sI7783
I1
sI7784
I1
sI7786
I1
sI23143
I1
sI7791
I1
sI728689
I1
sI7799
I1
sI7802
I1
sI7803
I1
sI7804
I1
sI7805
I1
sI399979
I1
sI7812
I1
sI7813
I1
sI55916
I1
sI7818
I1
sI7827
I1
sI64210
I1
sI7837
I1
sI7841
I1
sI7844
I1
sI7846
I1
sI7849
I1
sI7850
I1
sI7851
I1
sI7852
I1
sI55922
I1
sI7862
I1
sI204474
I1
sI7869
I1
sI7871
I1
sI401089
I1
sI7874
I1
sI7881
I1
sI728780
I1
sI55929
I1
sI401115
I1
sI23162
I1
sI7903
I1
sI7905
I1
sI219771
I1
sI401124
I1
sI7913
I1
sI7915
I1
sI7916
I1
sI7917
I1
sI7920
I1
sI401138
I1
sI401145
I1
sI51547
I1
sI7932
I1
sI401152
I1
sI7940
I1
sI7942
I1
sI285313
I1
sI57664
I1
sI23171
I1
sI7957
I1
sI51548
I1
sI727684
I1
sI7965
I1
sI22924
I1
sI401190
I1
sI7976
I1
sI7978
I1
sI100507436
I1
sI7982
I1
sI7984
I1
sI7988
I1
sI401207
I1
sI7993
I1
sI7994
I1
sI139067
I1
sI50485
I1
sI8001
I1
sI139081
I1
sI8013
I1
sI8019
I1
sI8021
I1
sI8022
I1
sI8027
I1
sI8028
I1
sI728927
I1
sI139105
I1
sI8034
I1
sI8036
I1
sI8038
I1
sI219793
I1
sI401258
I1
sI8045
I1
sI401262
I1
sI8050
I1
sI23187
I1
sI8061
I1
sI139135
I1
sI8065
I1
sI401285
I1
sI100507527
I1
sI8073
I1
sI285335
I1
sI8076
I1
sI8078
I1
sI8082
I1
sI8086
I1
sI8087
I1
sI8089
I1
sI8091
I1
sI8092
I1
sI8099
I1
sI8100
I1
sI23196
I1
sI8110
I1
sI139189
I1
sI8120
I1
sI23199
I1
sI8128
I1
sI23200
I1
sI8131
I1
sI100507588
I1
sI23201
I1
sI8139
I1
sI8140
I1
sI6819
I1
sI8148
I1
sI8153
I1
sI139231
I1
sI8170
I1
sI23207
I1
sI8174
I1
sI23208
I1
sI8178
I1
sI401399
I1
sI8187
I1
sI401409
I1
sI100507650
I1
sI8202
I1
sI8208
I1
sI8209
I1
sI137902
I1
sI8214
I1
sI8218
I1
sI8220
I1
sI100507679
I1
sI8224
I1
sI8225
I1
sI8226
I1
sI8228
I1
sI8233
I1
sI8237
I1
sI8239
I1
sI8241
I1
sI8242
I1
sI204851
I1
sI139322
I1
sI139324
I1
sI401474
I1
sI8260
I1
sI203447
I1
sI8273
I1
sI8277
I1
sI401494
I1
sI8284
I1
sI8287
I1
sI401505
I1
sI100507747
I1
sI8292
I1
sI8293
I1
sI8301
I1
sI8303
I1
sI8309
I1
sI8310
I1
sI8312
I1
sI8313
I1
sI8314
I1
sI8315
I1
sI8317
I1
sI8318
I1
sI8320
I1
sI23232
I1
sI8323
I1
sI401541
I1
sI8328
I1
sI401548
I1
sI729230
I1
sI401551
I1
sI729238
I1
sI203228
I1
sI401565
I1
sI219595
I1
sI285381
I1
sI204962
I1
sI94235
I1
sI729264
I1
sI100129480
I1
sI8372
I1
sI6857
I1
sI8379
I1
sI23242
I1
sI8382
I1
sI8392
I1
sI8394
I1
sI8395
I1
sI401612
I1
sI8398
I1
sI8399
I1
sI8402
I1
sI8404
I1
sI8406
I1
sI8407
I1
sI8408
I1
sI8409
I1
sI8411
I1
sI8412
I1
sI8416
I1
sI8417
I1
sI8425
I1
sI8427
I1
sI8428
I1
sI8431
I1
sI8434
I1
sI8435
I1
sI8437
I1
sI8438
I1
sI8439
I1
sI8440
I1
sI8443
I1
sI8444
I1
sI8445
I1
sI8447
I1
sI8448
I1
sI8449
I1
sI8450
I1
sI8451
I1
sI8452
I1
sI8453
I1
sI8454
I1
sI8455
I1
sI8456
I1
sI8458
I1
sI8459
I1
sI8460
I1
sI8462
I1
sI729359
I1
sI8464
I1
sI8468
I1
sI8470
I1
sI8471
I1
sI8473
I1
sI84299
I1
sI8476
I1
sI8479
I1
sI8480
I1
sI8481
I1
sI8482
I1
sI8483
I1
sI8487
I1
sI8490
I1
sI8491
I1
sI8492
I1
sI8495
I1
sI8496
I1
sI8497
I1
sI8498
I1
sI8499
I1
sI8500
I1
sI8501
I1
sI8502
I1
sI8503
I1
sI401720
I1
sI8505
I1
sI8506
I1
sI8507
I1
sI8508
I1
sI8509
I1
sI8510
I1
sI8513
I1
sI8514
I1
sI8515
I1
sI8516
I1
sI8517
I1
sI8518
I1
sI54840
I1
sI8520
I1
sI8521
I1
sI8522
I1
sI139596
I1
sI219874
I1
sI8526
I1
sI8527
I1
sI8528
I1
sI8531
I1
sI8532
I1
sI8533
I1
sI8534
I1
sI8535
I1
sI8536
I1
sI8537
I1
sI8538
I1
sI8539
I1
sI8540
I1
sI8541
I1
sI8542
I1
sI729440
I1
sI8546
I1
sI8547
I1
sI8548
I1
sI8549
I1
sI8550
I1
sI8554
I1
sI8555
I1
sI8556
I1
sI8558
I1
sI8559
I1
sI8560
I1
sI8563
I1
sI8564
I1
sI8565
I1
sI8566
I1
sI8567
I1
sI8568
I1
sI8569
I1
sI8570
I1
sI8572
I1
sI8573
I1
sI8574
I1
sI8575
I1
sI8576
I1
sI8578
I1
sI729475
I1
sI6892
I1
sI8600
I1
sI8601
I1
sI8602
I1
sI8603
I1
sI8604
I1
sI8605
I1
sI8607
I1
sI8608
I1
sI8609
I1
sI8611
I1
sI8612
I1
sI8615
I1
sI8618
I1
sI8620
I1
sI8621
I1
sI8622
I1
sI8623
I1
sI8624
I1
sI8625
I1
sI8626
I1
sI8629
I1
sI8631
I1
sI729528
I1
sI8633
I1
sI8634
I1
sI8635
I1
sI729533
I1
sI8638
I1
sI8639
I1
sI8641
I1
sI8643
I1
sI139716
I1
sI8645
I1
sI8646
I1
sI8647
I1
sI8648
I1
sI8649
I1
sI8650
I1
sI8653
I1
sI8654
I1
sI139728
I1
sI8658
I1
sI8659
I1
sI8662
I1
sI139735
I1
sI8668
I1
sI8669
I1
sI8671
I1
sI8672
I1
sI8673
I1
sI8674
I1
sI8675
I1
sI8676
I1
sI8677
I1
sI8678
I1
sI8681
I1
sI8682
I1
sI8685
I1
sI23293
I1
sI23294
I1
sI8694
I1
sI56063
I1
sI8702
I1
sI8703
I1
sI8704
I1
sI8706
I1
sI8710
I1
sI8711
I1
sI8714
I1
sI8715
I1
sI8717
I1
sI401934
I1
sI8720
I1
sI8721
I1
sI8722
I1
sI6915
I1
sI8724
I1
sI8725
I1
sI8726
I1
sI8727
I1
sI8728
I1
sI8729
I1
sI8731
I1
sI8732
I1
sI8736
I1
sI8737
I1
sI8738
I1
sI8740
I1
sI8741
I1
sI8743
I1
sI8745
I1
sI139818
I1
sI100129543
I1
sI8749
I1
sI8751
I1
sI23205
I1
sI8754
I1
sI8756
I1
sI8760
I1
sI8761
I1
sI8763
I1
sI8764
I1
sI8766
I1
sI8767
I1
sI729665
I1
sI8773
I1
sI8774
I1
sI8775
I1
sI8776
I1
sI8777
I1
sI8778
I1
sI8780
I1
sI8784
I1
sI8785
I1
sI8786
I1
sI8787
I1
sI8788
I1
sI653641
I1
sI8790
I1
sI8792
I1
sI8795
I1
sI8796
I1
sI116154
I1
sI8798
I1
sI8799
I1
sI8800
I1
sI8801
I1
sI8803
I1
sI84310
I1
sI8805
I1
sI8807
I1
sI8808
I1
sI8809
I1
sI8811
I1
sI8813
I1
sI8814
I1
sI30845
I1
sI8816
I1
sI205428
I1
sI8821
I1
sI8822
I1
sI8824
I1
sI8825
I1
sI8828
I1
sI8829
I1
sI8832
I1
sI8833
I1
sI8835
I1
sI8836
I1
sI727830
I1
sI8838
I1
sI8839
I1
sI8840
I1
sI8841
I1
sI8842
I1
sI8844
I1
sI50626
I1
sI8848
I1
sI8850
I1
sI729747
I1
sI8852
I1
sI8853
I1
sI8854
I1
sI8856
I1
sI50628
I1
sI8858
I1
sI8859
I1
sI8861
I1
sI8863
I1
sI8867
I1
sI256691
I1
sI8869
I1
sI8871
I1
sI8872
I1
sI8874
I1
sI8875
I1
sI8877
I1
sI8878
I1
sI8879
I1
sI8880
I1
sI8881
I1
sI8882
I1
sI8883
I1
sI8884
I1
sI8887
I1
sI8890
I1
sI8891
I1
sI100500938
I1
sI8894
I1
sI8896
I1
sI8897
I1
sI8898
I1
sI8899
I1
sI8900
I1
sI56097
I1
sI8904
I1
sI8905
I1
sI8906
I1
sI8907
I1
sI8908
I1
sI8909
I1
sI8910
I1
sI8911
I1
sI8912
I1
sI8913
I1
sI8914
I1
sI8915
I1
sI8916
I1
sI23332
I1
sI23333
I1
sI8930
I1
sI8932
I1
sI729830
I1
sI8935
I1
sI8936
I1
sI8938
I1
sI8939
I1
sI8940
I1
sI8942
I1
sI8943
I1
sI402160
I1
sI8945
I1
sI729852
I1
sI56106
I1
sI56107
I1
sI8972
I1
sI8973
I1
sI8974
I1
sI8975
I1
sI83417
I1
sI8986
I1
sI100129583
I1
sI8989
I1
sI8991
I1
sI56112
I1
sI8994
I1
sI8996
I1
sI8997
I1
sI8999
I1
sI9001
I1
sI9002
I1
sI9013
I1
sI9014
I1
sI9015
I1
sI9016
I1
sI9019
I1
sI9022
I1
sI729920
I1
sI9025
I1
sI9026
I1
sI9028
I1
sI9033
I1
sI9034
I1
sI9037
I1
sI9039
I1
sI9043
I1
sI9044
I1
sI9046
I1
sI9047
I1
sI9048
I1
sI9049
I1
sI9050
I1
sI9051
I1
sI9053
I1
sI9054
I1
sI9055
I1
sI9057
I1
sI9058
I1
sI9060
I1
sI9061
I1
sI9063
I1
sI9064
I1
sI9066
I1
sI9070
I1
sI9071
I1
sI9079
I1
sI9088
I1
sI9091
I1
sI9092
I1
sI9093
I1
sI9094
I1
sI121665
I1
sI9096
I1
sI9097
I1
sI9098
I1
sI9099
I1
sI9100
I1
sI100505385
I1
sI9104
I1
sI9107
I1
sI9108
I1
sI730005
I1
sI9110
I1
sI9112
I1
sI9113
I1
sI9114
I1
sI9117
I1
sI9120
I1
sI9121
I1
sI9122
I1
sI9124
I1
sI9125
I1
sI9127
I1
sI9128
I1
sI9129
I1
sI9131
I1
sI9132
I1
sI9134
I1
sI9135
I1
sI23368
I1
sI9138
I1
sI116211
I1
sI9140
I1
sI9141
I1
sI56137
I1
sI9144
I1
sI9145
I1
sI9146
I1
sI9147
I1
sI9148
I1
sI9149
I1
sI9150
I1
sI9152
I1
sI9153
I1
sI9154
I1
sI730051
I1
sI9156
I1
sI9158
I1
sI9159
I1
sI9162
I1
sI402381
I1
sI9167
I1
sI9169
I1
sI9172
I1
sI9173
I1
sI9175
I1
sI9177
I1
sI9179
I1
sI9180
I1
sI9181
I1
sI9182
I1
sI9183
I1
sI9184
I1
sI9185
I1
sI9187
I1
sI9188
I1
sI9191
I1
sI9194
I1
sI9196
I1
sI9197
I1
sI402415
I1
sI9200
I1
sI9201
I1
sI9202
I1
sI9203
I1
sI9205
I1
sI9208
I1
sI9209
I1
sI9211
I1
sI9212
I1
sI9213
I1
sI9214
I1
sI9215
I1
sI730112
I1
sI9217
I1
sI9218
I1
sI9219
I1
sI9221
I1
sI9223
I1
sI9228
I1
sI9229
I1
sI9231
I1
sI9235
I1
sI9236
I1
sI9238
I1
sI1540
I1
sI9244
I1
sI23386
I1
sI9246
I1
sI9248
I1
sI9249
I1
sI56155
I1
sI205860
I1
sI9253
I1
sI9254
I1
sI9255
I1
sI9256
I1
sI9258
I1
sI9260
I1
sI9261
I1
sI9262
I1
sI9263
I1
sI9266
I1
sI9267
I1
sI9270
I1
sI9271
I1
sI9274
I1
sI9275
I1
sI9276
I1
sI9277
I1
sI203259
I1
sI400224
I1
sI9282
I1
sI9283
I1
sI9287
I1
sI9289
I1
sI7010
I1
sI9295
I1
sI9296
I1
sI23395
I1
sI56164
I1
sI9308
I1
sI9310
I1
sI9311
I1
sI9312
I1
sI9314
I1
sI9315
I1
sI9317
I1
sI9318
I1
sI9319
I1
sI9320
I1
sI9321
I1
sI9322
I1
sI9324
I1
sI9325
I1
sI9326
I1
sI9328
I1
sI9329
I1
sI9330
I1
sI9331
I1
sI9332
I1
sI9333
I1
sI9337
I1
sI9340
I1
sI9341
I1
sI9343
I1
sI9344
I1
sI84328
I1
sI9348
I1
sI9351
I1
sI9352
I1
sI23404
I1
sI9354
I1
sI9355
I1
sI9356
I1
sI9358
I1
sI9360
I1
sI9361
I1
sI9362
I1
sI9363
I1
sI9364
I1
sI9365
I1
sI9369
I1
sI9372
I1
sI9373
I1
sI9374
I1
sI9376
I1
sI9378
I1
sI9379
I1
sI9380
I1
sI9381
I1
sI140456
I1
sI140458
I1
sI140459
I1
sI140460
I1
sI140461
I1
sI9390
I1
sI9392
I1
sI23411
I1
sI140469
I1
sI9398
I1
sI9399
I1
sI9400
I1
sI9401
I1
sI9402
I1
sI9403
I1
sI9404
I1
sI9406
I1
sI9407
I1
sI9409
I1
sI9411
I1
sI9412
I1
sI9413
I1
sI9414
I1
sI9415
I1
sI402635
I1
sI9420
I1
sI9421
I1
sI9422
I1
sI9424
I1
sI9425
I1
sI9427
I1
sI9429
I1
sI9436
I1
sI9437
I1
sI9439
I1
sI9440
I1
sI9442
I1
sI9444
I1
sI9446
I1
sI9447
I1
sI9448
I1
sI9450
I1
sI9451
I1
sI9452
I1
sI9454
I1
sI9455
I1
sI9456
I1
sI9459
I1
sI9462
I1
sI9463
I1
sI9465
I1
sI9467
I1
sI9468
I1
sI9470
I1
sI9472
I1
sI727936
I1
sI9474
I1
sI9475
I1
sI9476
I1
sI9477
I1
sI9478
I1
sI9479
I1
sI9480
I1
sI9481
I1
sI9482
I1
sI7042
I1
sI9487
I1
sI9488
I1
sI9489
I1
sI9491
I1
sI140564
I1
sI9493
I1
sI9496
I1
sI9497
I1
sI9498
I1
sI9499
I1
sI9500
I1
sI9501
I1
sI140578
I1
sI9507
I1
sI9508
I1
sI9509
I1
sI9512
I1
sI9514
I1
sI9515
I1
sI9516
I1
sI9517
I1
sI9520
I1
sI9521
I1
sI9522
I1
sI9524
I1
sI9525
I1
sI9526
I1
sI9527
I1
sI9528
I1
sI9529
I1
sI9530
I1
sI9531
I1
sI9532
I1
sI9533
I1
sI9534
I1
sI9535
I1
sI9536
I1
sI9537
I1
sI9538
I1
sI140612
I1
sI9542
I1
sI9543
I1
sI9546
I1
sI9551
I1
sI9552
I1
sI9553
I1
sI9554
I1
sI9555
I1
sI9556
I1
sI9557
I1
sI9559
I1
sI9560
I1
sI9562
I1
sI9563
I1
sI9564
I1
sI9567
I1
sI9568
I1
sI9569
I1
sI9570
I1
sI440044
I1
sI9575
I1
sI9576
I1
sI9577
I1
sI9578
I1
sI9580
I1
sI9581
I1
sI9582
I1
sI9583
I1
sI9584
I1
sI9585
I1
sI9586
I1
sI9587
I1
sI9589
I1
sI9590
I1
sI9595
I1
sI9600
I1
sI9601
I1
sI9604
I1
sI9605
I1
sI140680
I1
sI9609
I1
sI9610
I1
sI9611
I1
sI9612
I1
sI140685
I1
sI140686
I1
sI9615
I1
sI140688
I1
sI9617
I1
sI140690
I1
sI140691
I1
sI9622
I1
sI9625
I1
sI9626
I1
sI9627
I1
sI140700
I1
sI9630
I1
sI9631
I1
sI9632
I1
sI9633
I1
sI140706
I1
sI140707
I1
sI9637
I1
sI140710
I1
sI140711
I1
sI9640
I1
sI9641
I1
sI9644
I1
sI9645
I1
sI9647
I1
sI9648
I1
sI9649
I1
sI9650
I1
sI9651
I1
sI9653
I1
sI9654
I1
sI9656
I1
sI9657
I1
sI9658
I1
sI9659
I1
sI140732
I1
sI140733
I1
sI9662
I1
sI9663
I1
sI9665
I1
sI140738
I1
sI140739
I1
sI9671
I1
sI9672
I1
sI9673
I1
sI9674
I1
sI9675
I1
sI9677
I1
sI9678
I1
sI9681
I1
sI9682
I1
sI9683
I1
sI9684
I1
sI9685
I1
sI9686
I1
sI9687
I1
sI9688
I1
sI9689
I1
sI9690
I1
sI9692
I1
sI9693
I1
sI140766
I1
sI9695
I1
sI9696
I1
sI9697
I1
sI9698
I1
sI9699
I1
sI9700
I1
sI9701
I1
sI9702
I1
sI9703
I1
sI9704
I1
sI9705
I1
sI9706
I1
sI252839
I1
sI9708
I1
sI9709
I1
sI9710
I1
sI9711
I1
sI9712
I1
sI9715
I1
sI9718
I1
sI9719
I1
sI9720
I1
sI9721
I1
sI9722
I1
sI9723
I1
sI23466
I1
sI9726
I1
sI9727
I1
sI9728
I1
sI206338
I1
sI140803
I1
sI9732
I1
sI9733
I1
sI9734
I1
sI140807
I1
sI9738
I1
sI9742
I1
sI285613
I1
sI9745
I1
sI9746
I1
sI9747
I1
sI9748
I1
sI9749
I1
sI9750
I1
sI9751
I1
sI9752
I1
sI9753
I1
sI9754
I1
sI9755
I1
sI9757
I1
sI9758
I1
sI9759
I1
sI9760
I1
sI9761
I1
sI9762
I1
sI140836
I1
sI9765
I1
sI9766
I1
sI23473
I1
sI9768
I1
sI9770
I1
sI9771
I1
sI9772
I1
sI138162
I1
sI9774
I1
sI9775
I1
sI9776
I1
sI9777
I1
sI9778
I1
sI9779
I1
sI9781
I1
sI9782
I1
sI9783
I1
sI9784
I1
sI9785
I1
sI9786
I1
sI9787
I1
sI9788
I1
sI140862
I1
sI9791
I1
sI9792
I1
sI9793
I1
sI9796
I1
sI56246
I1
sI9798
I1
sI140873
I1
sI9802
I1
sI140876
I1
sI9805
I1
sI9806
I1
sI9807
I1
sI140880
I1
sI9810
I1
sI9811
I1
sI9812
I1
sI140885
I1
sI9814
I1
sI9815
I1
sI9816
I1
sI140890
I1
sI9819
I1
sI9820
I1
sI9821
I1
sI140894
I1
sI9824
I1
sI9826
I1
sI9828
I1
sI9829
I1
sI9830
I1
sI9831
I1
sI9832
I1
sI9833
I1
sI9837
I1
sI9839
I1
sI9840
I1
sI9841
I1
sI9842
I1
sI9843
I1
sI9844
I1
sI9846
I1
sI9847
I1
sI9848
I1
sI9849
I1
sI9851
I1
sI9853
I1
sI9854
I1
sI9855
I1
sI9856
I1
sI9859
I1
sI9860
I1
sI9861
I1
sI9862
I1
sI9863
I1
sI9866
I1
sI9869
I1
sI9870
I1
sI9871
I1
sI9873
I1
sI9874
I1
sI56259
I1
sI9877
I1
sI9878
I1
sI9879
I1
sI9881
I1
sI9882
I1
sI9883
I1
sI9884
I1
sI9885
I1
sI9886
I1
sI9887
I1
sI9890
I1
sI9892
I1
sI9894
I1
sI9895
I1
sI9896
I1
sI9897
I1
sI9898
I1
sI9899
I1
sI9900
I1
sI9901
I1
sI9902
I1
sI9903
I1
sI9904
I1
sI9905
I1
sI9906
I1
sI9907
I1
sI9908
I1
sI9909
I1
sI9910
I1
sI9911
I1
sI9912
I1
sI9913
I1
sI9914
I1
sI9917
I1
sI9919
I1
sI9921
I1
sI9922
I1
sI9923
I1
sI9924
I1
sI9926
I1
sI9928
I1
sI220108
I1
sI9931
I1
sI9936
I1
sI9938
I1
sI9940
I1
sI9941
I1
sI9942
I1
sI9943
I1
sI9945
I1
sI9948
I1
sI9949
I1
sI9950
I1
sI9953
I1
sI9955
I1
sI9956
I1
sI9958
I1
sI9960
I1
sI9961
I1
sI9962
I1
sI9963
I1
sI23198
I1
sI9966
I1
sI9967
I1
sI9969
I1
sI9970
I1
sI9971
I1
sI9972
I1
sI9975
I1
sI9980
I1
sI100506581
I1
sI9984
I1
sI9985
I1
sI9986
I1
sI9987
I1
sI9988
I1
sI9989
I1
sI9990
I1
sI9991
I1
sI9993
I1
sI7127
I1
sI10000
I1
sI10001
I1
sI10002
I1
sI10003
I1
sI10004
I1
sI10005
I1
sI10006
I1
sI10007
I1
sI10008
I1
sI10010
I1
sI10011
I1
sI10013
I1
sI10014
I1
sI10015
I1
sI10016
I1
sI10017
I1
sI10018
I1
sI10019
I1
sI10020
I1
sI10021
I1
sI10024
I1
sI10025
I1
sI10036
I1
sI10038
I1
sI10039
I1
sI10040
I1
sI10042
I1
sI10043
I1
sI10044
I1
sI10045
I1
sI10046
I1
sI10048
I1
sI10049
I1
sI10050
I1
sI10051
I1
sI10053
I1
sI10054
I1
sI10055
I1
sI10056
I1
sI10057
I1
sI10059
I1
sI10060
I1
sI10061
I1
sI10062
I1
sI10066
I1
sI10067
I1
sI10068
I1
sI10069
I1
sI10072
I1
sI23524
I1
sI10076
I1
sI10077
I1
sI10078
I1
sI10079
I1
sI10082
I1
sI10083
I1
sI10084
I1
sI10085
I1
sI10087
I1
sI10089
I1
sI10090
I1
sI285671
I1
sI10092
I1
sI10093
I1
sI10094
I1
sI10096
I1
sI10097
I1
sI10098
I1
sI10099
I1
sI10100
I1
sI10101
I1
sI10102
I1
sI10103
I1
sI10105
I1
sI10106
I1
sI10107
I1
sI10109
I1
sI10110
I1
sI10113
I1
sI10114
I1
sI10116
I1
sI10120
I1
sI23532
I1
sI403339
I1
sI10125
I1
sI10127
I1
sI10128
I1
sI10130
I1
sI10131
I1
sI10134
I1
sI10138
I1
sI10139
I1
sI10140
I1
sI1690
I1
sI10143
I1
sI10144
I1
sI10147
I1
sI10149
I1
sI10150
I1
sI10152
I1
sI10154
I1
sI28999
I1
sI10156
I1
sI10157
I1
sI10160
I1
sI10163
I1
sI10165
I1
sI10168
I1
sI10169
I1
sI10170
I1
sI10171
I1
sI10172
I1
sI10174
I1
sI10178
I1
sI10179
I1
sI10180
I1
sI10181
I1
sI337867
I1
sI10188
I1
sI10190
I1
sI10193
I1
sI10194
I1
sI10195
I1
sI10196
I1
sI10197
I1
sI10198
I1
sI10200
I1
sI10201
I1
sI10202
I1
sI10203
I1
sI10206
I1
sI10207
I1
sI10208
I1
sI10210
I1
sI10211
I1
sI10212
I1
sI10214
I1
sI10216
I1
sI10217
I1
sI10218
I1
sI10219
I1
sI10221
I1
sI10223
I1
sI10224
I1
sI10225
I1
sI10226
I1
sI10227
I1
sI10228
I1
sI10229
I1
sI10231
I1
sI10232
I1
sI10233
I1
sI10234
I1
sI10235
I1
sI10236
I1
sI10237
I1
sI7168
I1
sI10243
I1
sI10244
I1
sI10245
I1
sI10246
I1
sI7169
I1
sI285126
I1
sI10249
I1
sI10250
I1
sI10256
I1
sI10257
I1
sI10260
I1
sI10263
I1
sI220164
I1
sI10267
I1
sI10268
I1
sI10270
I1
sI10273
I1
sI10274
I1
sI10276
I1
sI10277
I1
sI10278
I1
sI10279
I1
sI10280
I1
sI10282
I1
sI10283
I1
sI10284
I1
sI10285
I1
sI10287
I1
sI10288
I1
sI10293
I1
sI10295
I1
sI10296
I1
sI10297
I1
sI10298
I1
sI10299
I1
sI10300
I1
sI132789
I1
sI343
I1
sI10307
I1
sI10308
I1
sI10311
I1
sI10312
I1
sI10313
I1
sI10314
I1
sI83639
I1
sI10316
I1
sI10317
I1
sI10318
I1
sI10319
I1
sI10320
I1
sI10321
I1
sI10322
I1
sI731220
I1
sI10325
I1
sI10326
I1
sI10327
I1
sI10328
I1
sI10329
I1
sI10330
I1
sI171023
I1
sI10332
I1
sI10335
I1
sI10342
I1
sI10344
I1
sI10345
I1
sI10346
I1
sI10347
I1
sI10350
I1
sI10351
I1
sI10352
I1
sI10361
I1
sI10362
I1
sI10363
I1
sI10367
I1
sI10369
I1
sI10370
I1
sI10380
I1
sI10381
I1
sI10382
I1
sI10384
I1
sI56344
I1
sI10388
I1
sI10389
I1
sI10390
I1
sI10391
I1
sI10392
I1
sI10393
I1
sI10395
I1
sI10396
I1
sI10397
I1
sI10398
I1
sI10400
I1
sI10402
I1
sI10404
I1
sI10407
I1
sI10411
I1
sI10412
I1
sI10413
I1
sI338094
I1
sI100271927
I1
sI10419
I1
sI10420
I1
sI646174
I1
sI10423
I1
sI10424
I1
sI10425
I1
sI10426
I1
sI10427
I1
sI10428
I1
sI10430
I1
sI10432
I1
sI10434
I1
sI10436
I1
sI22986
I1
sI10439
I1
sI10443
I1
sI10444
I1
sI10445
I1
sI10450
I1
sI10451
I1
sI10452
I1
sI10454
I1
sI10455
I1
sI10456
I1
sI10457
I1
sI10458
I1
sI10460
I1
sI10461
I1
sI10462
I1
sI10463
I1
sI10464
I1
sI10465
I1
sI10466
I1
sI10467
I1
sI10468
I1
sI10472
I1
sI10474
I1
sI10475
I1
sI10476
I1
sI10477
I1
sI10478
I1
sI10479
I1
sI10480
I1
sI10482
I1
sI10483
I1
sI10484
I1
sI10485
I1
sI10486
I1
sI10487
I1
sI10489
I1
sI10492
I1
sI10494
I1
sI10495
I1
sI10497
I1
sI10498
I1
sI10499
I1
sI10500
I1
sI10501
I1
sI10505
I1
sI10507
I1
sI10509
I1
sI10512
I1
sI10513
I1
sI10514
I1
sI10516
I1
sI10517
I1
sI10518
I1
sI10519
I1
sI10520
I1
sI10521
I1
sI10522
I1
sI10524
I1
sI10525
I1
sI10526
I1
sI10529
I1
sI10531
I1
sI10533
I1
sI10534
I1
sI10535
I1
sI10539
I1
sI10540
I1
sI10544
I1
sI59272
I1
sI10548
I1
sI10549
I1
sI10552
I1
sI10553
I1
sI10554
I1
sI10555
I1
sI10556
I1
sI10558
I1
sI10559
I1
sI10560
I1
sI10561
I1
sI10564
I1
sI10565
I1
sI10566
I1
sI10568
I1
sI10569
I1
sI10570
I1
sI252983
I1
sI10572
I1
sI10574
I1
sI10575
I1
sI10576
I1
sI10577
I1
sI10578
I1
sI10579
I1
sI10580
I1
sI23609
I1
sI10584
I1
sI10585
I1
sI10587
I1
sI10588
I1
sI10590
I1
sI10591
I1
sI10592
I1
sI10595
I1
sI10598
I1
sI10600
I1
sI284186
I1
sI10603
I1
sI10605
I1
sI10606
I1
sI10608
I1
sI10609
I1
sI10610
I1
sI10611
I1
sI10612
I1
sI10616
I1
sI10617
I1
sI10618
I1
sI10620
I1
sI10621
I1
sI10622
I1
sI10623
I1
sI10625
I1
sI10627
I1
sI10628
I1
sI10629
I1
sI10630
I1
sI10631
I1
sI10633
I1
sI10634
I1
sI10635
I1
sI10636
I1
sI116461
I1
sI10640
I1
sI338321
I1
sI10642
I1
sI338323
I1
sI10644
I1
sI10645
I1
sI225689
I1
sI338328
I1
sI10650
I1
sI10651
I1
sI10652
I1
sI10653
I1
sI10654
I1
sI10655
I1
sI10656
I1
sI10657
I1
sI10658
I1
sI338339
I1
sI10661
I1
sI149233
I1
sI10664
I1
sI10665
I1
sI10666
I1
sI10667
I1
sI10668
I1
sI10669
I1
sI10672
I1
sI10673
I1
sI10675
I1
sI10677
I1
sI10681
I1
sI10683
I1
sI10691
I1
sI10693
I1
sI10694
I1
sI10695
I1
sI10699
I1
sI338382
I1
sI10712
I1
sI10713
I1
sI10714
I1
sI10715
I1
sI10717
I1
sI10718
I1
sI29093
I1
sI10721
I1
sI10723
I1
sI10724
I1
sI10725
I1
sI10726
I1
sI10728
I1
sI10730
I1
sI10732
I1
sI10733
I1
sI10734
I1
sI10735
I1
sI10736
I1
sI10738
I1
sI10739
I1
sI10741
I1
sI10742
I1
sI10743
I1
sI10745
I1
sI10747
I1
sI10750
I1
sI10752
I1
sI10753
I1
sI10755
I1
sI10758
I1
sI338440
I1
sI10762
I1
sI10765
I1
sI10767
I1
sI10768
I1
sI10769
I1
sI10771
I1
sI10772
I1
sI10776
I1
sI10777
I1
sI10780
I1
sI10781
I1
sI10782
I1
sI10783
I1
sI10785
I1
sI10786
I1
sI10787
I1
sI10788
I1
sI10793
I1
sI10794
I1
sI10795
I1
sI10797
I1
sI10799
I1
sI10801
I1
sI10802
I1
sI10803
I1
sI10806
I1
sI10807
I1
sI10808
I1
sI10810
I1
sI10811
I1
sI10813
I1
sI10815
I1
sI10817
I1
sI10826
I1
sI10827
I1
sI10840
I1
sI10841
I1
sI10842
I1
sI10844
I1
sI10845
I1
sI10846
I1
sI10848
I1
sI10849
I1
sI10855
I1
sI10856
I1
sI10857
I1
sI10858
I1
sI10859
I1
sI10861
I1
sI10863
I1
sI10864
I1
sI10865
I1
sI10867
I1
sI10868
I1
sI10869
I1
sI10870
I1
sI10871
I1
sI10873
I1
sI10874
I1
sI404093
I1
sI10878
I1
sI10886
I1
sI10888
I1
sI10891
I1
sI10892
I1
sI10893
I1
sI10897
I1
sI10898
I1
sI10900
I1
sI10901
I1
sI10902
I1
sI10903
I1
sI10905
I1
sI10907
I1
sI10908
I1
sI10910
I1
sI10911
I1
sI10912
I1
sI10913
I1
sI10914
I1
sI10915
I1
sI338596
I1
sI10919
I1
sI10920
I1
sI10921
I1
sI10922
I1
sI10924
I1
sI10926
I1
sI10933
I1
sI10935
I1
sI10938
I1
sI10939
I1
sI10940
I1
sI10941
I1
sI10942
I1
sI10943
I1
sI10944
I1
sI10946
I1
sI10947
I1
sI10948
I1
sI10950
I1
sI10953
I1
sI10955
I1
sI10956
I1
sI154214
I1
sI10959
I1
sI10961
I1
sI10963
I1
sI10964
I1
sI338645
I1
sI10966
I1
sI10969
I1
sI10973
I1
sI23279
I1
sI338657
I1
sI10978
I1
sI10979
I1
sI338661
I1
sI10982
I1
sI10983
I1
sI338667
I1
sI10988
I1
sI10989
I1
sI10990
I1
sI10992
I1
sI10994
I1
sI10998
I1
sI11000
I1
sI11001
I1
sI11004
I1
sI11005
I1
sI11006
I1
sI11009
I1
sI11010
I1
sI11011
I1
sI338692
I1
sI11014
I1
sI11015
I1
sI11016
I1
sI11018
I1
sI338699
I1
sI11020
I1
sI11021
I1
sI11022
I1
sI11023
I1
sI11024
I1
sI11025
I1
sI11026
I1
sI338707
I1
sI11030
I1
sI11031
I1
sI11033
I1
sI11034
I1
sI11036
I1
sI11043
I1
sI11044
I1
sI11045
I1
sI11046
I1
sI11047
I1
sI11052
I1
sI22987
I1
sI11055
I1
sI11056
I1
sI11059
I1
sI11060
I1
sI11061
I1
sI11062
I1
sI11063
I1
sI11064
I1
sI11065
I1
sI11066
I1
sI11069
I1
sI11073
I1
sI11074
I1
sI11075
I1
sI11076
I1
sI11077
I1
sI11078
I1
sI43847
I1
sI11080
I1
sI338761
I1
sI11082
I1
sI11083
I1
sI651746
I1
sI11092
I1
sI11093
I1
sI11094
I1
sI11095
I1
sI11096
I1
sI11097
I1
sI11098
I1
sI11099
I1
sI11100
I1
sI11101
I1
sI11104
I1
sI11105
I1
sI11107
I1
sI11108
I1
sI11112
I1
sI11113
I1
sI11116
I1
sI11118
I1
sI11119
I1
sI11120
I1
sI11122
I1
sI11123
I1
sI11124
I1
sI11126
I1
sI11127
I1
sI11129
I1
sI11130
I1
sI11131
I1
sI11132
I1
sI11133
I1
sI11136
I1
sI11137
I1
sI11138
I1
sI11140
I1
sI11141
I1
sI11143
I1
sI11144
I1
sI11145
I1
sI11146
I1
sI11147
I1
sI11148
I1
sI11151
I1
sI11152
I1
sI11154
I1
sI11155
I1
sI11156
I1
sI11158
I1
sI11159
I1
sI11160
I1
sI11162
I1
sI11163
I1
sI11164
I1
sI11168
I1
sI11169
I1
sI11170
I1
sI11171
I1
sI11172
I1
sI11173
I1
sI11174
I1
sI11176
I1
sI11177
I1
sI11179
I1
sI11180
I1
sI11181
I1
sI11182
I1
sI11183
I1
sI11184
I1
sI11185
I1
sI11186
I1
sI11187
I1
sI11188
I1
sI11189
I1
sI11190
I1
sI11193
I1
sI11194
I1
sI11196
I1
sI51018
I1
sI11198
I1
sI11199
I1
sI11200
I1
sI11201
I1
sI11202
I1
sI83787
I1
sI11212
I1
sI11213
I1
sI11214
I1
sI11215
I1
sI11216
I1
sI11217
I1
sI11221
I1
sI3765
I1
sI11227
I1
sI11228
I1
sI11231
I1
sI11232
I1
sI11234
I1
sI11235
I1
sI11236
I1
sI11237
I1
sI11238
I1
sI11240
I1
sI11243
I1
sI11245
I1
sI11247
I1
sI11252
I1
sI11253
I1
sI11255
I1
sI11258
I1
sI11259
I1
sI11261
I1
sI11262
I1
sI1877
I1
sI11264
I1
sI11266
I1
sI11267
I1
sI11269
I1
sI11270
I1
sI11272
I1
sI11273
I1
sI11274
I1
sI11275
I1
sI11276
I1
sI11277
I1
sI11278
I1
sI11279
I1
sI11280
I1
sI11281
I1
sI11282
I1
sI11283
I1
sI11285
I1
sI202151
I1
sI11309
I1
sI11311
I1
sI11313
I1
sI11314
I1
sI11316
I1
sI11317
I1
sI11319
I1
sI11320
I1
sI11321
I1
sI11322
I1
sI11325
I1
sI11326
I1
sI11328
I1
sI11329
I1
sI11330
I1
sI11331
I1
sI11332
I1
sI11336
I1
sI11338
I1
sI11339
I1
sI11340
I1
sI11341
I1
sI11342
I1
sI11343
I1
sI11346
I1
sI400569
I1
sI203328
I1
sI122042
I1
sI64755
I1
sI138429
I1
sI404636
I1
sI339105
I1
sI54937
I1
sI339122
I1
sI339123
I1
sI404672
I1
sI80034
I1
sI339145
I1
sI339168
I1
sI339175
I1
sI339184
I1
sI339210
I1
sI339221
I1
sI339229
I1
sI339230
I1
sI83850
I1
sI339263
I1
sI51084
I1
sI83853
I1
sI56547
I1
sI142678
I1
sI142679
I1
sI142680
I1
sI56034
I1
sI142683
I1
sI142685
I1
sI142686
I1
sI51088
I1
sI339318
I1
sI339327
I1
sI83862
I1
sI1943
I1
sI339344
I1
sI339366
I1
sI51103
I1
sI339390
I1
sI7414
I1
sI256710
I1
sI51106
I1
sI83875
I1
sI339416
I1
sI51108
I1
sI51109
I1
sI51111
I1
sI147694
I1
sI728318
I1
sI339448
I1
sI339451
I1
sI51114
I1
sI51116
I1
sI83886
I1
sI339479
I1
sI339487
I1
sI339488
I1
sI51121
I1
sI142891
I1
sI339501
I1
sI339512
I1
sI83892
I1
sI142910
I1
sI51125
I1
sI83894
I1
sI378807
I1
sI339541
I1
sI339559
I1
sI728340
I1
sI503497
I1
sI339665
I1
sI339669
I1
sI256815
I1
sI728361
I1
sI143098
I1
sI51161
I1
sI83930
I1
sI339745
I1
sI83932
I1
sI339761
I1
sI339766
I1
sI339768
I1
sI143162
I1
sI339778
I1
sI149473
I1
sI51170
I1
sI143187
I1
sI83940
I1
sI339804
I1
sI728378
I1
sI51174
I1
sI51175
I1
sI56052
I1
sI339834
I1
sI149483
I1
sI143241
I1
sI339855
I1
sI83953
I1
sI339883
I1
sI143279
I1
sI54963
I1
sI339896
I1
sI51690
I1
sI56652
I1
sI83959
I1
sI400720
I1
sI149499
I1
sI339965
I1
sI339967
I1
sI57148
I1
sI339976
I1
sI339977
I1
sI143379
I1
sI143425
I1
sI442319
I1
sI56674
I1
sI340061
I1
sI2064
I1
sI143458
I1
sI340069
I1
sI143471
I1
sI400745
I1
sI83990
I1
sI162993
I1
sI51230
I1
sI51231
I1
sI340156
I1
sI51232
I1
sI143570
I1
sI340204
I1
sI340205
I1
sI7549
I1
sI84318
I1
sI405753
I1
sI148811
I1
sI7552
I1
sI340252
I1
sI340267
I1
sI143662
I1
sI340273
I1
sI340277
I1
sI54976
I1
sI143684
I1
sI143686
I1
sI51259
I1
sI219738
I1
sI23335
I1
sI89894
I1
sI340348
I1
sI340351
I1
sI84034
I1
sI23336
I1
sI340371
I1
sI340385
I1
sI373156
I1
sI340390
I1
sI340393
I1
sI57162
I1
sI340419
I1
sI23338
I1
sI340441
I1
sI23339
I1
sI51282
I1
sI219743
I1
sI143872
I1
sI340481
I1
sI340485
I1
sI143879
I1
sI728492
I1
sI143884
I1
sI143888
I1
sI280664
I1
sI59348
I1
sI143903
I1
sI196051
I1
sI51292
I1
sI340527
I1
sI84063
I1
sI51296
I1
sI340547
I1
sI51298
I1
sI340562
I1
sI84067
I1
sI51300
I1
sI619279
I1
sI84070
I1
sI51303
I1
sI51304
I1
sI340596
I1
sI84073
I1
sI84074
I1
sI84079
I1
sI728215
I1
sI51313
I1
sI340654
I1
sI144097
I1
sI340706
I1
sI144100
I1
sI51324
I1
sI144108
I1
sI340745
I1
sI138715
I1
sI84102
I1
sI51338
I1
sI144195
I1
sI51340
I1
sI51341
I1
sI144245
I1
sI89778
I1
sI340895
I1
sI23397
I1
sI23354
I1
sI144321
I1
sI54998
I1
sI155382
I1
sI84131
I1
sI51364
I1
sI84133
I1
sI51366
I1
sI84135
I1
sI286205
I1
sI340990
I1
sI144402
I1
sI144404
I1
sI84142
I1
sI144406
I1
sI444
I1
sI144423
I1
sI341032
I1
sI51378
I1
sI158405
I1
sI51380
I1
sI7690
I1
sI144448
I1
sI144453
I1
sI144455
I1
sI728588
I1
sI23439
I1
sI51384
I1
sI7695
I1
sI51386
I1
sI144501
I1
sI7700
I1
sI341116
I1
sI7701
I1
sI78987
I1
sI55665
I1
sI78989
I1
sI78990
I1
sI78991
I1
sI78992
I1
sI116931
I1
sI78996
I1
sI78997
I1
sI79000
I1
sI79001
I1
sI23362
I1
sI79005
I1
sI79007
I1
sI79008
I1
sI79009
I1
sI79012
I1
sI79017
I1
sI79018
I1
sI79019
I1
sI79020
I1
sI79022
I1
sI79025
I1
sI79026
I1
sI79027
I1
sI79029
I1
sI79031
I1
sI144568
I1
sI79033
I1
sI79034
I1
sI79035
I1
sI79036
I1
sI79038
I1
sI79039
I1
sI144577
I1
sI79042
I1
sI79047
I1
sI79048
I1
sI79050
I1
sI79053
I1
sI79054
I1
sI84467
I1
sI79056
I1
sI79058
I1
sI79066
I1
sI79068
I1
sI79070
I1
sI79071
I1
sI107984097
I1
sI79074
I1
sI79075
I1
sI7718
I1
sI79083
I1
sI79084
I1
sI79085
I1
sI79086
I1
sI79087
I1
sI79088
I1
sI79089
I1
sI79090
I1
sI79091
I1
sI79092
I1
sI79094
I1
sI79095
I1
sI79096
I1
sI56099
I1
sI79098
I1
sI79109
I1
sI79133
I1
sI79135
I1
sI171568
I1
sI79139
I1
sI79140
I1
sI79142
I1
sI79143
I1
sI79145
I1
sI79148
I1
sI79149
I1
sI79152
I1
sI79154
I1
sI79155
I1
sI79156
I1
sI79157
I1
sI79158
I1
sI79161
I1
sI144699
I1
sI79171
I1
sI79172
I1
sI79173
I1
sI79174
I1
sI79175
I1
sI79176
I1
sI79178
I1
sI144715
I1
sI79180
I1
sI144717
I1
sI79183
I1
sI79184
I1
sI55738
I1
sI79187
I1
sI79188
I1
sI79190
I1
sI79191
I1
sI79192
I1
sI51428
I1
sI400954
I1
sI341346
I1
sI7739
I1
sI51430
I1
sI341350
I1
sI341359
I1
sI116969
I1
sI79228
I1
sI79230
I1
sI84203
I1
sI400961
I1
sI23370
I1
sI728642
I1
sI79258
I1
sI341405
I1
sI79269
I1
sI23371
I1
sI144811
I1
sI253512
I1
sI79295
I1
sI56907
I1
sI116983
I1
sI84216
I1
sI56910
I1
sI84217
I1
sI51450
I1
sI116987
I1
sI23373
I1
sI24145
I1
sI84220
I1
sI24148
I1
sI84223
I1
sI24149
I1
sI79363
I1
sI79364
I1
sI79366
I1
sI79368
I1
sI79369
I1
sI79370
I1
sI374286
I1
sI374291
I1
sI2309
I1
sI56109
I1
sI79400
I1
sI51463
I1
sI79411
I1
sI79412
I1
sI84233
I1
sI7775
I1
sI79442
I1
sI374355
I1
sI79444
I1
sI79446
I1
sI374378
I1
sI374383
I1
sI439921
I1
sI133396
I1
sI374395
I1
sI51477
I1
sI399818
I1
sI374403
I1
sI374407
I1
sI122481
I1
sI341676
I1
sI100288797
I1
sI374454
I1
sI374462
I1
sI374470
I1
sI79567
I1
sI79568
I1
sI79570
I1
sI84259
I1
sI79572
I1
sI79573
I1
sI79574
I1
sI56953
I1
sI79576
I1
sI79577
I1
sI440026
I1
sI79581
I1
sI79582
I1
sI79583
I1
sI79585
I1
sI79586
I1
sI79587
I1
sI79589
I1
sI79591
I1
sI100316904
I1
sI79594
I1
sI51495
I1
sI79596
I1
sI79598
I1
sI56957
I1
sI79600
I1
sI51496
I1
sI55959
I1
sI79605
I1
sI79607
I1
sI79608
I1
sI79609
I1
sI79611
I1
sI79612
I1
sI79613
I1
sI79616
I1
sI79618
I1
sI440068
I1
sI79621
I1
sI79623
I1
sI79624
I1
sI440073
I1
sI79627
I1
sI79629
I1
sI79630
I1
sI79631
I1
sI79632
I1
sI160728
I1
sI79634
I1
sI79635
I1
sI79637
I1
sI79639
I1
sI79640
I1
sI79641
I1
sI79642
I1
sI79643
I1
sI79644
I1
sI79645
I1
sI79647
I1
sI79648
I1
sI84272
I1
sI79650
I1
sI79651
I1
sI79654
I1
sI79656
I1
sI374569
I1
sI79658
I1
sI56967
I1
sI79661
I1
sI79663
I1
sI79664
I1
sI79665
I1
sI51507
I1
sI79668
I1
sI79669
I1
sI79670
I1
sI79671
I1
sI79673
I1
sI79674
I1
sI79675
I1
sI79676
I1
sI79677
I1
sI79679
I1
sI79682
I1
sI79683
I1
sI79684
I1
sI79685
I1
sI79689
I1
sI79691
I1
sI79695
I1
sI79696
I1
sI51512
I1
sI79698
I1
sI79699
I1
sI79701
I1
sI79703
I1
sI79705
I1
sI374618
I1
sI79707
I1
sI112476
I1
sI79709
I1
sI79710
I1
sI112479
I1
sI79712
I1
sI79714
I1
sI112483
I1
sI79716
I1
sI79717
I1
sI79718
I1
sI79719
I1
sI79720
I1
sI79722
I1
sI79723
I1
sI79724
I1
sI79725
I1
sI79726
I1
sI145264
I1
sI79729
I1
sI79730
I1
sI79731
I1
sI79733
I1
sI79734
I1
sI79735
I1
sI341880
I1
sI79739
I1
sI79740
I1
sI79741
I1
sI79742
I1
sI374655
I1
sI79744
I1
sI440193
I1
sI145282
I1
sI374659
I1
sI79750
I1
sI79752
I1
sI23387
I1
sI79758
I1
sI79759
I1
sI79763
I1
sI79768
I1
sI79772
I1
sI79774
I1
sI79777
I1
sI79778
I1
sI79780
I1
sI79781
I1
sI79782
I1
sI79783
I1
sI79784
I1
sI79785
I1
sI79786
I1
sI79788
I1
sI79789
I1
sI79791
I1
sI79792
I1
sI79794
I1
sI79796
I1
sI79797
I1
sI79798
I1
sI79799
I1
sI79800
I1
sI79801
I1
sI79802
I1
sI79805
I1
sI112574
I1
sI79807
I1
sI79809
I1
sI79810
I1
sI79811
I1
sI79812
I1
sI79813
I1
sI23389
I1
sI79815
I1
sI79816
I1
sI79818
I1
sI79819
I1
sI79822
I1
sI79823
I1
sI79825
I1
sI63915
I1
sI79827
I1
sI79828
I1
sI79829
I1
sI79830
I1
sI440279
I1
sI79832
I1
sI79834
I1
sI107984859
I1
sI79836
I1
sI79837
I1
sI79838
I1
sI79839
I1
sI145376
I1
sI112609
I1
sI79842
I1
sI79843
I1
sI79844
I1
sI79845
I1
sI79846
I1
sI440295
I1
sI112616
I1
sI79849
I1
sI79850
I1
sI79853
I1
sI79856
I1
sI79858
I1
sI79861
I1
sI79862
I1
sI79863
I1
sI79864
I1
sI79865
I1
sI79866
I1
sI79867
I1
sI79868
I1
sI79869
I1
sI79870
I1
sI145407
I1
sI79872
I1
sI79873
I1
sI374786
I1
sI79875
I1
sI79876
I1
sI79877
I1
sI79879
I1
sI79882
I1
sI79883
I1
sI79884
I1
sI79885
I1
sI79886
I1
sI440335
I1
sI79888
I1
sI79890
I1
sI79891
I1
sI79892
I1
sI79893
I1
sI79895
I1
sI79897
I1
sI79898
I1
sI79899
I1
sI440348
I1
sI79901
I1
sI79902
I1
sI79903
I1
sI79905
I1
sI79906
I1
sI374819
I1
sI79908
I1
sI145447
I1
sI79912
I1
sI641372
I1
sI79915
I1
sI79917
I1
sI79918
I1
sI79919
I1
sI79921
I1
sI79922
I1
sI79923
I1
sI79925
I1
sI79930
I1
sI79931
I1
sI79932
I1
sI79933
I1
sI79934
I1
sI79935
I1
sI79944
I1
sI79947
I1
sI374860
I1
sI79949
I1
sI374864
I1
sI79953
I1
sI79954
I1
sI79955
I1
sI79956
I1
sI79957
I1
sI79958
I1
sI79959
I1
sI79960
I1
sI79961
I1
sI79962
I1
sI374875
I1
sI145501
I1
sI79966
I1
sI79968
I1
sI79969
I1
sI374882
I1
sI79971
I1
sI145508
I1
sI79973
I1
sI79974
I1
sI374887
I1
sI79977
I1
sI79979
I1
sI79980
I1
sI79981
I1
sI79982
I1
sI79983
I1
sI112752
I1
sI374897
I1
sI112755
I1
sI342132
I1
sI79989
I1
sI79990
I1
sI79991
I1
sI79993
I1
sI51562
I1
sI79998
I1
sI80000
I1
sI112770
I1
sI80003
I1
sI80004
I1
sI80005
I1
sI80006
I1
sI374920
I1
sI51564
I1
sI80011
I1
sI80012
I1
sI80013
I1
sI80014
I1
sI374928
I1
sI145553
I1
sI80018
I1
sI253635
I1
sI80020
I1
sI80021
I1
sI80023
I1
sI80024
I1
sI80025
I1
sI80028
I1
sI80031
I1
sI80032
I1
sI112802
I1
sI80036
I1
sI51569
I1
sI342184
I1
sI374955
I1
sI80045
I1
sI285268
I1
sI112817
I1
sI80055
I1
sI407738
I1
sI80059
I1
sI374973
I1
sI80063
I1
sI374977
I1
sI440515
I1
sI80070
I1
sI80071
I1
sI112840
I1
sI7884
I1
sI374986
I1
sI112849
I1
sI768211
I1
sI55041
I1
sI80097
I1
sI80099
I1
sI112869
I1
sI145645
I1
sI80114
I1
sI80115
I1
sI112885
I1
sI80119
I1
sI375033
I1
sI80122
I1
sI80125
I1
sI440574
I1
sI80127
I1
sI80128
I1
sI80129
I1
sI80131
I1
sI80133
I1
sI84503
I1
sI440585
I1
sI100130519
I1
sI440590
I1
sI80143
I1
sI375056
I1
sI80145
I1
sI80146
I1
sI80148
I1
sI80149
I1
sI80150
I1
sI80152
I1
sI80153
I1
sI80155
I1
sI23229
I1
sI80157
I1
sI80162
I1
sI80167
I1
sI80168
I1
sI80169
I1
sI56181
I1
sI80173
I1
sI80174
I1
sI80178
I1
sI80179
I1
sI112950
I1
sI80183
I1
sI80184
I1
sI80185
I1
sI80194
I1
sI80195
I1
sI80196
I1
sI80198
I1
sI80199
I1
sI80201
I1
sI342346
I1
sI80204
I1
sI80205
I1
sI80206
I1
sI80207
I1
sI80208
I1
sI80209
I1
sI80210
I1
sI80212
I1
sI342357
I1
sI80216
I1
sI80217
I1
sI80218
I1
sI80219
I1
sI80221
I1
sI80222
I1
sI80223
I1
sI80224
I1
sI80227
I1
sI342372
I1
sI80230
I1
sI80232
I1
sI80233
I1
sI80235
I1
sI145773
I1
sI440689
I1
sI80243
I1
sI145781
I1
sI80254
I1
sI80255
I1
sI80256
I1
sI374739
I1
sI113026
I1
sI80262
I1
sI80263
I1
sI80264
I1
sI80267
I1
sI80270
I1
sI80271
I1
sI80274
I1
sI375190
I1
sI80279
I1
sI440730
I1
sI162239
I1
sI7922
I1
sI80303
I1
sI80304
I1
sI80305
I1
sI80308
I1
sI80309
I1
sI80310
I1
sI80312
I1
sI80313
I1
sI80314
I1
sI80315
I1
sI80317
I1
sI80318
I1
sI80321
I1
sI145858
I1
sI80323
I1
sI80324
I1
sI80325
I1
sI80326
I1
sI145864
I1
sI80329
I1
sI80332
I1
sI80333
I1
sI80335
I1
sI375248
I1
sI122616
I1
sI51619
I1
sI80342
I1
sI80343
I1
sI80344
I1
sI80345
I1
sI80346
I1
sI80347
I1
sI80349
I1
sI80351
I1
sI80352
I1
sI113130
I1
sI342510
I1
sI57085
I1
sI408050
I1
sI440822
I1
sI80380
I1
sI440829
I1
sI342527
I1
sI7936
I1
sI375298
I1
sI220929
I1
sI375307
I1
sI375316
I1
sI440854
I1
sI113177
I1
sI145946
I1
sI375323
I1
sI145957
I1
sI375337
I1
sI113201
I1
sI113220
I1
sI89869
I1
sI113235
I1
sI89870
I1
sI117178
I1
sI113246
I1
sI89872
I1
sI113251
I1
sI117286
I1
sI89874
I1
sI100529257
I1
sI408187
I1
sI440956
I1
sI440957
I1
sI146050
I1
sI146057
I1
sI146059
I1
sI375444
I1
sI375449
I1
sI56147
I1
sI89884
I1
sI100507421
I1
sI57118
I1
sI57119
I1
sI375484
I1
sI441024
I1
sI89891
I1
sI107983993
I1
sI441054
I1
sI404220
I1
sI51665
I1
sI57128
I1
sI84435
I1
sI146177
I1
sI146183
I1
sI7980
I1
sI146198
I1
sI146206
I1
sI113444
I1
sI51676
I1
sI113451
I1
sI113452
I1
sI146223
I1
sI146225
I1
sI146227
I1
sI51678
I1
sI375611
I1
sI80700
I1
sI375616
I1
sI80705
I1
sI342850
I1
sI80709
I1
sI441161
I1
sI80714
I1
sI7991
I1
sI149986
I1
sI441168
I1
sI342865
I1
sI80724
I1
sI80725
I1
sI80726
I1
sI80727
I1
sI80728
I1
sI80731
I1
sI80736
I1
sI80737
I1
sI80739
I1
sI80742
I1
sI146279
I1
sI80745
I1
sI80746
I1
sI342892
I1
sI57149
I1
sI342897
I1
sI78995
I1
sI80759
I1
sI80760
I1
sI166378
I1
sI80772
I1
sI4684
I1
sI146310
I1
sI80776
I1
sI84460
I1
sI80778
I1
sI80781
I1
sI342926
I1
sI51693
I1
sI342931
I1
sI342933
I1
sI80790
I1
sI342945
I1
sI441250
I1
sI57158
I1
sI89927
I1
sI80816
I1
sI80817
I1
sI80818
I1
sI133619
I1
sI80820
I1
sI80821
I1
sI57161
I1
sI441272
I1
sI80829
I1
sI80831
I1
sI80832
I1
sI80833
I1
sI441282
I1
sI342979
I1
sI375748
I1
sI55749
I1
sI146378
I1
sI113612
I1
sI375757
I1
sI375759
I1
sI80851
I1
sI80852
I1
sI80853
I1
sI80854
I1
sI80856
I1
sI146395
I1
sI375775
I1
sI375790
I1
sI113655
I1
sI343035
I1
sI146429
I1
sI80895
I1
sI80896
I1
sI146433
I1
sI146439
I1
sI113675
I1
sI253461
I1
sI343066
I1
sI441376
I1
sI23016
I1
sI474170
I1
sI8031
I1
sI89953
I1
sI80975
I1
sI113746
I1
sI55750
I1
sI89958
I1
sI146540
I1
sI146542
I1
sI441457
I1
sI441459
I1
sI146556
I1
sI51733
I1
sI146562
I1
sI81027
I1
sI441476
I1
sI81030
I1
sI81031
I1
sI81033
I1
sI81034
I1
sI81035
I1
sI81037
I1
sI2585
I1
sI441509
I1
sI113835
I1
sI51741
I1
sI441525
I1
sI29899
I1
sI441549
I1
sI117283
I1
sI113878
I1
sI89978
I1
sI343263
I1
sI54878
I1
sI84518
I1
sI474343
I1
sI146664
I1
sI146691
I1
sI146705
I1
sI146712
I1
sI146713
I1
sI84527
I1
sI441631
I1
sI84528
I1
sI146722
I1
sI346673
I1
sI253832
I1
sI441670
I1
sI2615
I1
sI284451
I1
sI146779
I1
sI133690
I1
sI128229
I1
sI84541
I1
sI114034
I1
sI343413
I1
sI114049
I1
sI161003
I1
sI346689
I1
sI55752
I1
sI51778
I1
sI150084
I1
sI343450
I1
sI146845
I1
sI146849
I1
sI146850
I1
sI146852
I1
sI114088
I1
sI146857
I1
sI146862
I1
sI114112
I1
sI376267
I1
sI146894
I1
sI343505
I1
sI114132
I1
sI114134
I1
sI146909
I1
sI343521
I1
sI554235
I1
sI146923
I1
sI441864
I1
sI146956
I1
sI441869
I1
sI107986453
I1
sI51802
I1
sI55753
I1
sI51804
I1
sI147011
I1
sI81488
I1
sI81490
I1
sI81492
I1
sI343637
I1
sI81494
I1
sI343641
I1
sI81501
I1
sI81502
I1
sI114294
I1
sI114299
I1
sI81532
I1
sI81533
I1
sI81537
I1
sI81539
I1
sI81544
I1
sI494188
I1
sI90050
I1
sI81550
I1
sI81551
I1
sI81552
I1
sI81554
I1
sI81555
I1
sI81556
I1
sI81557
I1
sI81558
I1
sI114327
I1
sI256949
I1
sI81562
I1
sI81565
I1
sI81566
I1
sI81567
I1
sI81570
I1
sI81573
I1
sI81575
I1
sI81576
I1
sI81577
I1
sI81578
I1
sI2674
I1
sI341277
I1
sI376497
I1
sI442038
I1
sI81602
I1
sI81605
I1
sI81606
I1
sI79137
I1
sI81608
I1
sI81609
I1
sI81610
I1
sI81611
I1
sI81614
I1
sI81615
I1
sI81616
I1
sI81618
I1
sI81619
I1
sI81621
I1
sI81622
I1
sI81624
I1
sI81627
I1
sI147166
I1
sI147179
I1
sI147183
I1
sI148930
I1
sI147199
I1
sI537
I1
sI442117
I1
sI81688
I1
sI81691
I1
sI81693
I1
sI219855
I1
sI81704
I1
sI81706
I1
sI84623
I1
sI30011
I1
sI66008
I1
sI442213
I1
sI114548
I1
sI81786
I1
sI147323
I1
sI81788
I1
sI81790
I1
sI81792
I1
sI81793
I1
sI81794
I1
sI81796
I1
sI23066
I1
sI114569
I1
sI114571
I1
sI81831
I1
sI81832
I1
sI81833
I1
sI147372
I1
sI81839
I1
sI114609
I1
sI23022
I1
sI81846
I1
sI81847
I1
sI81848
I1
sI81849
I1
sI81853
I1
sI81856
I1
sI114625
I1
sI81858
I1
sI253943
I1
sI245711
I1
sI81873
I1
sI81875
I1
sI81876
I1
sI221178
I1
sI81887
I1
sI81888
I1
sI81889
I1
sI114659
I1
sI81892
I1
sI81894
I1
sI81926
I1
sI204801
I1
sI81929
I1
sI81930
I1
sI221188
I1
sI147495
I1
sI221191
I1
sI245806
I1
sI114757
I1
sI23023
I1
sI114769
I1
sI114770
I1
sI114771
I1
sI344148
I1
sI114780
I1
sI114781
I1
sI114783
I1
sI114785
I1
sI114789
I1
sI114790
I1
sI114791
I1
sI114792
I1
sI114793
I1
sI114795
I1
sI114799
I1
sI114800
I1
sI114803
I1
sI114804
I1
sI114805
I1
sI114815
I1
sI114818
I1
sI114821
I1
sI114822
I1
sI114823
I1
sI114825
I1
sI114826
I1
sI114827
I1
sI114836
I1
sI245913
I1
sI245932
I1
sI245934
I1
sI286749
I1
sI245937
I1
sI114876
I1
sI114879
I1
sI114880
I1
sI114881
I1
sI114882
I1
sI114883
I1
sI114884
I1
sI147657
I1
sI147658
I1
sI114897
I1
sI114898
I1
sI114899
I1
sI245973
I1
sI147670
I1
sI114904
I1
sI114905
I1
sI114907
I1
sI147686
I1
sI147687
I1
sI114926
I1
sI147699
I1
sI147710
I1
sI166614
I1
sI147719
I1
sI89801
I1
sI130399
I1
sI114971
I1
sI147741
I1
sI147744
I1
sI147746
I1
sI8193
I1
sI57393
I1
sI114987
I1
sI114991
I1
sI8243
I1
sI115004
I1
sI344387
I1
sI115019
I1
sI115024
I1
sI147798
I1
sI401466
I1
sI147807
I1
sI285343
I1
sI147837
I1
sI147841
I1
sI122945
I1
sI2797
I1
sI246175
I1
sI147872
I1
sI115111
I1
sI133874
I1
sI115123
I1
sI23474
I1
sI147906
I1
sI246213
I1
sI147920
I1
sI147923
I1
sI147929
I1
sI7108
I1
sI246243
I1
sI147945
I1
sI147948
I1
sI147949
I1
sI344558
I1
sI115196
I1
sI246269
I1
sI147968
I1
sI115201
I1
sI729438
I1
sI147991
I1
sI148014
I1
sI246329
I1
sI246330
I1
sI574016
I1
sI8289
I1
sI115273
I1
sI344657
I1
sI8291
I1
sI115286
I1
sI115290
I1
sI115294
I1
sI115330
I1
sI148103
I1
sI115350
I1
sI115352
I1
sI148137
I1
sI344752
I1
sI148156
I1
sI49854
I1
sI49855
I1
sI49856
I1
sI100287171
I1
sI115399
I1
sI90233
I1
sI115416
I1
sI115426
I1
sI344805
I1
sI148198
I1
sI344807
I1
sI100287226
I1
sI148229
I1
sI148252
I1
sI148254
I1
sI148266
I1
sI148268
I1
sI123016
I1
sI100287284
I1
sI90249
I1
sI148281
I1
sI221322
I1
sI344905
I1
sI115548
I1
sI22980
I1
sI115557
I1
sI148327
I1
sI148345
I1
sI541565
I1
sI115584
I1
sI254102
I1
sI541578
I1
sI221336
I1
sI123036
I1
sI23247
I1
sI285362
I1
sI148418
I1
sI84811
I1
sI57505
I1
sI150350
I1
sI115677
I1
sI345062
I1
sI377841
I1
sI115701
I1
sI115703
I1
sI115704
I1
sI246778
I1
sI254122
I1
sI148479
I1
sI11027
I1
sI115727
I1
sI57520
I1
sI115749
I1
sI115752
I1
sI148523
I1
sI148545
I1
sI574537
I1
sI285367
I1
sI115795
I1
sI84836
I1
sI115811
I1
sI148581
I1
sI345193
I1
sI115825
I1
sI115827
I1
sI345222
I1
sI158798
I1
sI148641
I1
sI118427
I1
sI90313
I1
sI345275
I1
sI115908
I1
sI8396
I1
sI221391
I1
sI51400
I1
sI100287718
I1
sI90321
I1
sI115948
I1
sI221395
I1
sI90324
I1
sI378108
I1
sI148738
I1
sI148741
I1
sI57560
I1
sI115992
I1
sI57563
I1
sI57565
I1
sI50484
I1
sI148789
I1
sI50487
I1
sI50488
I1
sI50489
I1
sI116039
I1
sI148808
I1
sI50506
I1
sI50507
I1
sI50509
I1
sI50511
I1
sI50515
I1
sI148823
I1
sI116068
I1
sI90342
I1
sI116071
I1
sI221416
I1
sI285556
I1
sI116085
I1
sI146547
I1
sI148867
I1
sI148870
I1
sI116113
I1
sI221424
I1
sI50604
I1
sI116143
I1
sI50613
I1
sI50614
I1
sI50615
I1
sI50618
I1
sI100287932
I1
sI116159
I1
sI83394
I1
sI148932
I1
sI50632
I1
sI50636
I1
sI116173
I1
sI50640
I1
sI116179
I1
sI345557
I1
sI83416
I1
sI50649
I1
sI50650
I1
sI50651
I1
sI56243
I1
sI374354
I1
sI83439
I1
sI83440
I1
sI2984
I1
sI148979
I1
sI83445
I1
sI83447
I1
sI83448
I1
sI83449
I1
sI83450
I1
sI83451
I1
sI83452
I1
sI116225
I1
sI116228
I1
sI83461
I1
sI83463
I1
sI83464
I1
sI345611
I1
sI116238
I1
sI83473
I1
sI83475
I1
sI83478
I1
sI83479
I1
sI83480
I1
sI494513
I1
sI345643
I1
sI149041
I1
sI7145
I1
sI116285
I1
sI100288072
I1
sI149069
I1
sI90381
I1
sI83538
I1
sI83539
I1
sI149076
I1
sI83543
I1
sI83544
I1
sI83546
I1
sI83547
I1
sI83548
I1
sI83549
I1
sI149095
I1
sI116328
I1
sI112942
I1
sI105375396
I1
sI50804
I1
sI50805
I1
sI149111
I1
sI50808
I1
sI50809
I1
sI50810
I1
sI50814
I1
sI83592
I1
sI83593
I1
sI83594
I1
sI83596
I1
sI112724
I1
sI116369
I1
sI116372
I1
sI83605
I1
sI83606
I1
sI83607
I1
sI83608
I1
sI150468
I1
sI116379
I1
sI345757
I1
sI50846
I1
sI50852
I1
sI50853
I1
sI50855
I1
sI50856
I1
sI57628
I1
sI50859
I1
sI50861
I1
sI50863
I1
sI150472
I1
sI345778
I1
sI83636
I1
sI83637
I1
sI83638
I1
sI149175
I1
sI83641
I1
sI83643
I1
sI23034
I1
sI221472
I1
sI83657
I1
sI83658
I1
sI83659
I1
sI83660
I1
sI83666
I1
sI374393
I1
sI57636
I1
sI116443
I1
sI116444
I1
sI116447
I1
sI116449
I1
sI83690
I1
sI56252
I1
sI83692
I1
sI83693
I1
sI83694
I1
sI83695
I1
sI83696
I1
sI83697
I1
sI83698
I1
sI83699
I1
sI83700
I1
sI50937
I1
sI83706
I1
sI83707
I1
sI50940
I1
sI90410
I1
sI50943
I1
sI50944
I1
sI50945
I1
sI83714
I1
sI83715
I1
sI83719
I1
sI83723
I1
sI116496
I1
sI83732
I1
sI83733
I1
sI83734
I1
sI83737
I1
sI83744
I1
sI149281
I1
sI83746
I1
sI345895
I1
sI83752
I1
sI83756
I1
sI83758
I1
sI83759
I1
sI149297
I1
sI50999
I1
sI51000
I1
sI51001
I1
sI51002
I1
sI51003
I1
sI51004
I1
sI51005
I1
sI51006
I1
sI51008
I1
sI51009
I1
sI51010
I1
sI51011
I1
sI51012
I1
sI51013
I1
sI63893
I1
sI345930
I1
sI51019
I1
sI100288332
I1
sI51021
I1
sI51022
I1
sI51023
I1
sI51026
I1
sI83795
I1
sI51028
I1
sI51029
I1
sI51030
I1
sI51031
I1
sI51035
I1
sI51042
I1
sI51043
I1
sI51053
I1
sI51057
I1
sI51058
I1
sI51059
I1
sI51061
I1
sI51062
I1
sI51063
I1
sI51066
I1
sI51068
I1
sI51069
I1
sI51070
I1
sI51071
I1
sI51072
I1
sI51073
I1
sI51074
I1
sI51075
I1
sI51077
I1
sI51078
I1
sI83849
I1
sI51082
I1
sI83851
I1
sI83852
I1
sI51085
I1
sI83854
I1
sI51087
I1
sI83856
I1
sI83857
I1
sI83858
I1
sI51091
I1
sI83860
I1
sI83861
I1
sI51094
I1
sI51095
I1
sI51096
I1
sI51098
I1
sI51099
I1
sI51100
I1
sI51101
I1
sI51102
I1
sI83871
I1
sI51104
I1
sI51105
I1
sI83874
I1
sI51107
I1
sI83876
I1
sI83877
I1
sI83878
I1
sI83879
I1
sI51112
I1
sI83881
I1
sI83882
I1
sI51115
I1
sI149420
I1
sI51117
I1
sI51118
I1
sI83887
I1
sI83889
I1
sI83890
I1
sI83891
I1
sI149428
I1
sI83893
I1
sI51126
I1
sI51127
I1
sI51129
I1
sI51130
I1
sI51131
I1
sI51133
I1
sI51134
I1
sI51135
I1
sI51138
I1
sI51141
I1
sI51142
I1
sI51144
I1
sI51147
I1
sI51148
I1
sI51149
I1
sI51150
I1
sI51151
I1
sI51154
I1
sI51155
I1
sI51156
I1
sI149461
I1
sI51160
I1
sI149465
I1
sI51162
I1
sI83931
I1
sI51164
I1
sI83933
I1
sI51166
I1
sI83937
I1
sI83938
I1
sI51171
I1
sI51172
I1
sI149478
I1
sI83943
I1
sI51176
I1
sI51177
I1
sI51179
I1
sI51181
I1
sI51182
I1
sI51184
I1
sI51185
I1
sI51191
I1
sI51192
I1
sI51194
I1
sI51195
I1
sI51196
I1
sI51199
I1
sI51200
I1
sI51201
I1
sI51202
I1
sI51203
I1
sI51205
I1
sI51206
I1
sI51207
I1
sI51208
I1
sI51213
I1
sI83540
I1
sI83985
I1
sI83986
I1
sI83988
I1
sI83989
I1
sI51222
I1
sI83992
I1
sI51225
I1
sI51226
I1
sI51227
I1
sI51228
I1
sI83998
I1
sI83999
I1
sI84000
I1
sI51233
I1
sI51234
I1
sI90459
I1
sI51241
I1
sI50807
I1
sI51244
I1
sI51246
I1
sI542767
I1
sI51248
I1
sI51250
I1
sI51251
I1
sI51252
I1
sI51253
I1
sI51255
I1
sI51256
I1
sI51257
I1
sI346171
I1
sI51260
I1
sI51265
I1
sI51266
I1
sI51267
I1
sI51268
I1
sI51271
I1
sI51272
I1
sI199692
I1
sI51274
I1
sI51276
I1
sI51277
I1
sI51279
I1
sI51281
I1
sI280658
I1
sI51283
I1
sI51285
I1
sI51287
I1
sI84056
I1
sI84057
I1
sI84058
I1
sI51291
I1
sI84060
I1
sI51293
I1
sI84062
I1
sI51295
I1
sI84064
I1
sI84066
I1
sI116835
I1
sI84068
I1
sI84069
I1
sI51302
I1
sI84071
I1
sI116840
I1
sI116841
I1
sI51306
I1
sI116843
I1
sI51308
I1
sI84077
I1
sI51310
I1
sI51311
I1
sI51312
I1
sI84081
I1
sI84083
I1
sI51317
I1
sI51318
I1
sI51319
I1
sI51321
I1
sI51322
I1
sI149628
I1
sI51326
I1
sI51329
I1
sI84100
I1
sI84101
I1
sI51334
I1
sI84103
I1
sI51337
I1
sI84106
I1
sI51339
I1
sI84108
I1
sI84109
I1
sI51343
I1
sI199704
I1
sI51347
I1
sI51348
I1
sI84124
I1
sI84125
I1
sI84126
I1
sI84128
I1
sI51361
I1
sI51363
I1
sI84132
I1
sI51365
I1
sI84134
I1
sI51367
I1
sI51368
I1
sI84138
I1
sI23533
I1
sI84140
I1
sI51374
I1
sI51375
I1
sI84144
I1
sI51377
I1
sI84146
I1
sI51379
I1
sI84148
I1
sI84152
I1
sI51385
I1
sI84154
I1
sI51388
I1
sI51389
I1
sI51390
I1
sI84159
I1
sI51393
I1
sI84163
I1
sI84164
I1
sI51397
I1
sI84166
I1
sI84167
I1
sI84168
I1
sI84171
I1
sI84172
I1
sI84173
I1
sI84174
I1
sI51409
I1
sI84179
I1
sI84181
I1
sI84186
I1
sI84187
I1
sI84188
I1
sI51421
I1
sI84190
I1
sI84191
I1
sI84193
I1
sI51426
I1
sI51427
I1
sI84196
I1
sI51429
I1
sI116966
I1
sI51433
I1
sI51434
I1
sI51435
I1
sI51440
I1
sI51441
I1
sI51444
I1
sI84215
I1
sI116984
I1
sI116985
I1
sI116986
I1
sI84219
I1
sI116988
I1
sI84221
I1
sI51454
I1
sI51455
I1
sI84224
I1
sI84225
I1
sI84229
I1
sI84230
I1
sI84231
I1
sI84232
I1
sI51465
I1
sI51466
I1
sI84236
I1
sI84239
I1
sI84240
I1
sI51474
I1
sI51475
I1
sI84245
I1
sI51478
I1
sI51479
I1
sI84248
I1
sI84249
I1
sI84250
I1
sI84251
I1
sI84253
I1
sI84254
I1
sI84255
I1
sI84256
I1
sI100288801
I1
sI51490
I1
sI51491
I1
sI84260
I1
sI84261
I1
sI84263
I1
sI84264
I1
sI84265
I1
sI84266
I1
sI84267
I1
sI84268
I1
sI84269
I1
sI84270
I1
sI84271
I1
sI51504
I1
sI84274
I1
sI84275
I1
sI51510
I1
sI84280
I1
sI51513
I1
sI84282
I1
sI641339
I1
sI51517
I1
sI84286
I1
sI84287
I1
sI84288
I1
sI84289
I1
sI90507
I1
sI51524
I1
sI84293
I1
sI51526
I1
sI84295
I1
sI51528
I1
sI51529
I1
sI51530
I1
sI51531
I1
sI51533
I1
sI51534
I1
sI84303
I1
sI84304
I1
sI51537
I1
sI51538
I1
sI84307
I1
sI84309
I1
sI51542
I1
sI84311
I1
sI84312
I1
sI84313
I1
sI84314
I1
sI84315
I1
sI84316
I1
sI84317
I1
sI51550
I1
sI84319
I1
sI84321
I1
sI51555
I1
sI51557
I1
sI84326
I1
sI51559
I1
sI51560
I1
sI84329
I1
sI84330
I1
sI84332
I1
sI84333
I1
sI84334
I1
sI84335
I1
sI84336
I1
sI84337
I1
sI51571
I1
sI84340
I1
sI51573
I1
sI51574
I1
sI84343
I1
sI51582
I1
sI51585
I1
sI51586
I1
sI79595
I1
sI51588
I1
sI51592
I1
sI51593
I1
sI51594
I1
sI84364
I1
sI253769
I1
sI51599
I1
sI51603
I1
sI51604
I1
sI51605
I1
sI51606
I1
sI117145
I1
sI51611
I1
sI51614
I1
sI117154
I1
sI117155
I1
sI51621
I1
sI117159
I1
sI145748
I1
sI51626
I1
sI51629
I1
sI51631
I1
sI51633
I1
sI51635
I1
sI117177
I1
sI51642
I1
sI51643
I1
sI149951
I1
sI84417
I1
sI346562
I1
sI51651
I1
sI51652
I1
sI51654
I1
sI51655
I1
sI51657
I1
sI51660
I1
sI51661
I1
sI84433
I1
sI51666
I1
sI51667
I1
sI84436
I1
sI51669
I1
sI84439
I1
sI84440
I1
sI84441
I1
sI84443
I1
sI84444
I1
sI84445
I1
sI84446
I1
sI84447
I1
sI84448
I1
sI84449
I1
sI84450
I1
sI84451
I1
sI51684
I1
sI51686
I1
sI84455
I1
sI84456
I1
sI84457
I1
sI84458
I1
sI51692
I1
sI84461
I1
sI149998
I1
sI84464
I1
sI84465
I1
sI84466
I1
sI51699
I1
sI51700
I1
sI51701
I1
sI51702
I1
sI51703
I1
sI51704
I1
sI51705
I1
sI117245
I1
sI51710
I1
sI117247
I1
sI117248
I1
sI51719
I1
sI51720
I1
sI51727
I1
sI84498
I1
sI84501
I1
sI51735
I1
sI84504
I1
sI51738
I1
sI346653
I1
sI51742
I1
sI51744
I1
sI84513
I1
sI84514
I1
sI84515
I1
sI84516
I1
sI51750
I1
sI51752
I1
sI117289
I1
sI51754
I1
sI51755
I1
sI84524
I1
sI84525
I1
sI51759
I1
sI51760
I1
sI84529
I1
sI51762
I1
sI51763
I1
sI84532
I1
sI51765
I1
sI51768
I1
sI51773
I1
sI84542
I1
sI51776
I1
sI84545
I1
sI150082
I1
sI84547
I1
sI51780
I1
sI3169
I1
sI84553
I1
sI84557
I1
sI150094
I1
sI101927503
I1
sI84569
I1
sI84570
I1
sI112399
I1
sI84572
I1
sI51805
I1
sI51807
I1
sI51809
I1
sI164668
I1
sI51816
I1
sI3175
I1
sI641649
I1
sI199786
I1
sI145173
I1
sI84614
I1
sI84617
I1
sI84619
I1
sI84620
I1
sI150159
I1
sI84624
I1
sI84626
I1
sI84628
I1
sI84629
I1
sI84630
I1
sI84632
I1
sI8644
I1
sI84634
I1
sI84640
I1
sI84641
I1
sI100289187
I1
sI641700
I1
sI84645
I1
sI84647
I1
sI84649
I1
sI84650
I1
sI84656
I1
sI84658
I1
sI84660
I1
sI84661
I1
sI57801
I1
sI84665
I1
sI84667
I1
sI84668
I1
sI84669
I1
sI84671
I1
sI150209
I1
sI84674
I1
sI84675
I1
sI84676
I1
sI84678
I1
sI84679
I1
sI84680
I1
sI84687
I1
sI84688
I1
sI84689
I1
sI84690
I1
sI84691
I1
sI84693
I1
sI84695
I1
sI84696
I1
sI84698
I1
sI84699
I1
sI84700
I1
sI84701
I1
sI84705
I1
sI84706
I1
sI84707
I1
sI84708
I1
sI100190949
I1
sI150248
I1
sI84717
I1
sI284273
I1
sI84720
I1
sI84722
I1
sI84725
I1
sI79657
I1
sI84733
I1
sI100289279
I1
sI150274
I1
sI150275
I1
sI150280
I1
sI8663
I1
sI84749
I1
sI84750
I1
sI150290
I1
sI150297
I1
sI117531
I1
sI117532
I1
sI84765
I1
sI84766
I1
sI84775
I1
sI84787
I1
sI57822
I1
sI84790
I1
sI84795
I1
sI84803
I1
sI84804
I1
sI84807
I1
sI84808
I1
sI117579
I1
sI84812
I1
sI84814
I1
sI117583
I1
sI84816
I1
sI84818
I1
sI150356
I1
sI445582
I1
sI84824
I1
sI150365
I1
sI84830
I1
sI150372
I1
sI84838
I1
sI84839
I1
sI150379
I1
sI101927789
I1
sI150383
I1
sI84851
I1
sI84859
I1
sI84861
I1
sI84864
I1
sI84866
I1
sI84867
I1
sI84869
I1
sI84870
I1
sI84871
I1
sI84873
I1
sI84874
I1
sI84875
I1
sI84879
I1
sI84881
I1
sI84885
I1
sI84886
I1
sI84888
I1
sI84891
I1
sI84893
I1
sI84894
I1
sI84895
I1
sI84896
I1
sI84897
I1
sI84898
I1
sI445347
I1
sI84900
I1
sI84902
I1
sI84904
I1
sI84905
I1
sI84908
I1
sI84909
I1
sI84910
I1
sI84911
I1
sI84912
I1
sI84913
I1
sI84914
I1
sI84916
I1
sI84918
I1
sI84919
I1
sI84922
I1
sI84923
I1
sI84924
I1
sI5010
I1
sI84928
I1
sI150465
I1
sI84930
I1
sI84932
I1
sI84934
I1
sI84935
I1
sI84936
I1
sI84937
I1
sI84938
I1
sI84939
I1
sI84940
I1
sI84941
I1
sI84944
I1
sI150483
I1
sI84950
I1
sI84951
I1
sI84952
I1
sI84954
I1
sI84955
I1
sI84957
I1
sI84958
I1
sI84959
I1
sI84961
I1
sI84962
I1
sI84964
I1
sI84966
I1
sI84969
I1
sI84970
I1
sI84971
I1
sI84975
I1
sI84976
I1
sI84978
I1
sI84985
I1
sI84986
I1
sI84988
I1
sI129401
I1
sI84993
I1
sI85002
I1
sI85004
I1
sI85007
I1
sI85013
I1
sI85015
I1
sI85016
I1
sI85019
I1
sI85021
I1
sI3249
I1
sI649
I1
sI150572
I1
sI128861
I1
sI8718
I1
sI102157402
I1
sI117854
I1
sI391013
I1
sI100289635
I1
sI139793
I1
sI347240
I1
sI8723
I1
sI347252
I1
sI445571
I1
sI100289678
I1
sI401944
I1
sI150677
I1
sI150678
I1
sI150681
I1
sI150684
I1
sI79728
I1
sI150696
I1
sI150709
I1
sI58484
I1
sI284348
I1
sI150726
I1
sI79736
I1
sI642273
I1
sI150763
I1
sI150771
I1
sI374654
I1
sI79745
I1
sI167127
I1
sI347404
I1
sI79746
I1
sI79747
I1
sI85301
I1
sI85320
I1
sI85329
I1
sI85360
I1
sI85363
I1
sI445815
I1
sI85369
I1
sI347517
I1
sI85377
I1
sI150921
I1
sI85395
I1
sI85397
I1
sI85403
I1
sI85407
I1
sI199920
I1
sI150946
I1
sI85413
I1
sI85414
I1
sI85417
I1
sI642475
I1
sI150962
I1
sI147965
I1
sI85437
I1
sI85439
I1
sI85440
I1
sI85441
I1
sI85442
I1
sI85443
I1
sI85444
I1
sI85445
I1
sI85446
I1
sI23046
I1
sI85450
I1
sI85451
I1
sI85452
I1
sI85456
I1
sI85458
I1
sI642515
I1
sI85461
I1
sI85462
I1
sI85463
I1
sI85464
I1
sI85474
I1
sI151011
I1
sI85476
I1
sI85477
I1
sI85478
I1
sI85479
I1
sI85480
I1
sI85481
I1
sI151050
I1
sI151056
I1
sI642597
I1
sI347688
I1
sI105369140
I1
sI85569
I1
sI151112
I1
sI642636
I1
sI347734
I1
sI347735
I1
sI347736
I1
sI347741
I1
sI347744
I1
sI25764
I1
sI105369199
I1
sI105369201
I1
sI151188
I1
sI118424
I1
sI101928601
I1
sI118426
I1
sI151195
I1
sI118429
I1
sI199964
I1
sI3357
I1
sI221079
I1
sI219988
I1
sI118461
I1
sI101928638
I1
sI84305
I1
sI118471
I1
sI151242
I1
sI347853
I1
sI151246
I1
sI151254
I1
sI151258
I1
sI118491
I1
sI440275
I1
sI151295
I1
sI79831
I1
sI151313
I1
sI25770
I1
sI642843
I1
sI8837
I1
sI402055
I1
sI7222
I1
sI101928764
I1
sI80328
I1
sI199990
I1
sI79841
I1
sI112611
I1
sI151393
I1
sI85865
I1
sI79847
I1
sI348013
I1
sI79848
I1
sI642938
I1
sI118663
I1
sI145389
I1
sI118672
I1
sI642987
I1
sI58509
I1
sI151473
I1
sI23593
I1
sI643008
I1
sI348110
I1
sI151525
I1
sI151531
I1
sI282617
I1
sI79871
I1
sI348158
I1
sI118788
I1
sI348174
I1
sI348180
I1
sI118812
I1
sI118813
I1
sI100049587
I1
sI200030
I1
sI282679
I1
sI151613
I1
sI348235
I1
sI53335
I1
sI53339
I1
sI220002
I1
sI53342
I1
sI53343
I1
sI53344
I1
sI53346
I1
sI151651
I1
sI53349
I1
sI348262
I1
sI53354
I1
sI53358
I1
sI8893
I1
sI342035
I1
sI53371
I1
sI53373
I1
sI118924
I1
sI220004
I1
sI643226
I1
sI53405
I1
sI53407
I1
sI643236
I1
sI348327
I1
sI123591
I1
sI643246
I1
sI23051
I1
sI282809
I1
sI151742
I1
sI118980
I1
sI118987
I1
sI348378
I1
sI119016
I1
sI643311
I1
sI3454
I1
sI149840
I1
sI282890
I1
sI151827
I1
sI151835
I1
sI643382
I1
sI151871
I1
sI63978
I1
sI643394
I1
sI129446
I1
sI151888
I1
sI282966
I1
sI282969
I1
sI643418
I1
sI282973
I1
sI282974
I1
sI151903
I1
sI8934
I1
sI414059
I1
sI53615
I1
sI53616
I1
sI282996
I1
sI112703
I1
sI53630
I1
sI53635
I1
sI119180
I1
sI134553
I1
sI90865
I1
sI151987
I1
sI152002
I1
sI51422
I1
sI152006
I1
sI85409
I1
sI283080
I1
sI79948
I1
sI152015
I1
sI348645
I1
sI205564
I1
sI414189
I1
sI348654
I1
sI374868
I1
sI283130
I1
sI101929469
I1
sI152065
I1
sI51747
I1
sI283149
I1
sI152078
I1
sI283152
I1
sI145497
I1
sI152098
I1
sI152100
I1
sI152110
I1
sI374877
I1
sI643641
I1
sI53820
I1
sI53827
I1
sI53829
I1
sI53832
I1
sI283209
I1
sI283212
I1
sI53838
I1
sI53840
I1
sI53841
I1
sI283219
I1
sI643669
I1
sI283229
I1
sI119391
I1
sI119392
I1
sI283234
I1
sI283237
I1
sI283238
I1
sI283248
I1
sI283254
I1
sI414328
I1
sI171586
I1
sI152189
I1
sI348807
I1
sI152206
I1
sI53904
I1
sI53905
I1
sI283284
I1
sI285489
I1
sI53919
I1
sI7251
I1
sI119467
I1
sI283310
I1
sI53938
I1
sI374899
I1
sI283316
I1
sI53942
I1
sI374900
I1
sI283337
I1
sI119504
I1
sI152273
I1
sI283349
I1
sI643802
I1
sI53981
I1
sI283373
I1
sI283375
I1
sI85459
I1
sI283383
I1
sI283385
I1
sI643836
I1
sI54014
I1
sI54020
I1
sI119559
I1
sI152330
I1
sI643853
I1
sI54033
I1
sI54039
I1
sI283417
I1
sI91272
I1
sI119587
I1
sI283431
I1
sI54058
I1
sI54059
I1
sI80008
I1
sI54069
I1
sI283446
I1
sI89832
I1
sI200159
I1
sI283455
I1
sI348995
I1
sI54084
I1
sI283461
I1
sI283464
I1
sI200162
I1
sI54097
I1
sI152404
I1
sI54102
I1
sI54103
I1
sI645121
I1
sI474344
I1
sI80017
I1
sI283518
I1
sI9024
I1
sI54148
I1
sI54149
I1
sI134637
I1
sI283537
I1
sI54165
I1
sI119710
I1
sI152485
I1
sI54187
I1
sI123720
I1
sI283571
I1
sI152503
I1
sI283578
I1
sI145567
I1
sI54206
I1
sI54207
I1
sI54209
I1
sI54210
I1
sI54212
I1
sI101929926
I1
sI152519
I1
sI403341
I1
sI374946
I1
sI58189
I1
sI349136
I1
sI220032
I1
sI101929959
I1
sI283629
I1
sI152559
I1
sI283635
I1
sI283638
I1
sI283643
I1
sI152579
I1
sI283652
I1
sI152586
I1
sI283659
I1
sI145581
I1
sI283677
I1
sI644150
I1
sI346606
I1
sI54332
I1
sI283710
I1
sI644168
I1
sI54346
I1
sI3597
I1
sI54360
I1
sI54361
I1
sI283748
I1
sI105370733
I1
sI152687
I1
sI29089
I1
sI254827
I1
sI54407
I1
sI87178
I1
sI54413
I1
sI54414
I1
sI80067
I1
sI283807
I1
sI54432
I1
sI54434
I1
sI54436
I1
sI54437
I1
sI54438
I1
sI54439
I1
sI54440
I1
sI54443
I1
sI283820
I1
sI54453
I1
sI54454
I1
sI54455
I1
sI54456
I1
sI54457
I1
sI54458
I1
sI54461
I1
sI54462
I1
sI54463
I1
sI54464
I1
sI54465
I1
sI54467
I1
sI54468
I1
sI54469
I1
sI54470
I1
sI54471
I1
sI283848
I1
sI54475
I1
sI54476
I1
sI54477
I1
sI54478
I1
sI54480
I1
sI54482
I1
sI152789
I1
sI54487
I1
sI54491
I1
sI54492
I1
sI54494
I1
sI54495
I1
sI54496
I1
sI54497
I1
sI54498
I1
sI54499
I1
sI54502
I1
sI54503
I1
sI54504
I1
sI54505
I1
sI54507
I1
sI54510
I1
sI152815
I1
sI152816
I1
sI54514
I1
sI54516
I1
sI54517
I1
sI54518
I1
sI54520
I1
sI54521
I1
sI54522
I1
sI283899
I1
sI54529
I1
sI54531
I1
sI54532
I1
sI54535
I1
sI54536
I1
sI54537
I1
sI54538
I1
sI54539
I1
sI54540
I1
sI54542
I1
sI54545
I1
sI54549
I1
sI54550
I1
sI283927
I1
sI54555
I1
sI54556
I1
sI54557
I1
sI54558
I1
sI54566
I1
sI120103
I1
sI100652748
I1
sI729991
I1
sI152877
I1
sI283953
I1
sI54578
I1
sI54583
I1
sI54585
I1
sI54586
I1
sI54587
I1
sI283971
I1
sI54602
I1
sI54606
I1
sI9101
I1
sI283985
I1
sI283987
I1
sI283989
I1
sI93109
I1
sI54617
I1
sI54619
I1
sI54620
I1
sI54621
I1
sI54622
I1
sI283999
I1
sI284001
I1
sI284004
I1
sI54629
I1
sI145483
I1
sI100128108
I1
sI284013
I1
sI51399
I1
sI284018
I1
sI284021
I1
sI349565
I1
sI205717
I1
sI54662
I1
sI54663
I1
sI54665
I1
sI54675
I1
sI54676
I1
sI54677
I1
sI100423062
I1
sI54680
I1
sI54681
I1
sI54682
I1
sI152992
I1
sI284067
I1
sI284069
I1
sI284071
I1
sI54700
I1
sI54704
I1
sI284083
I1
sI54708
I1
sI284086
I1
sI54714
I1
sI54715
I1
sI153020
I1
sI284099
I1
sI54726
I1
sI284110
I1
sI284111
I1
sI54737
I1
sI54739
I1
sI54741
I1
sI54742
I1
sI284119
I1
sI54749
I1
sI54751
I1
sI284129
I1
sI284131
I1
sI54756
I1
sI54757
I1
sI54758
I1
sI54760
I1
sI54762
I1
sI54763
I1
sI54764
I1
sI54765
I1
sI54766
I1
sI54776
I1
sI54778
I1
sI54780
I1
sI54784
I1
sI284161
I1
sI153090
I1
sI54788
I1
sI151126
I1
sI54790
I1
sI7280
I1
sI54795
I1
sI54796
I1
sI54798
I1
sI54799
I1
sI54800
I1
sI54801
I1
sI54802
I1
sI54805
I1
sI54806
I1
sI54807
I1
sI54808
I1
sI54810
I1
sI54811
I1
sI54812
I1
sI54813
I1
sI54814
I1
sI54815
I1
sI54816
I1
sI54819
I1
sI54820
I1
sI54822
I1
sI54823
I1
sI153129
I1
sI54826
I1
sI54827
I1
sI54828
I1
sI54829
I1
sI284207
I1
sI54834
I1
sI9139
I1
sI54836
I1
sI54838
I1
sI54839
I1
sI120376
I1
sI54841
I1
sI54842
I1
sI120379
I1
sI54845
I1
sI54847
I1
sI54848
I1
sI54849
I1
sI54850
I1
sI54852
I1
sI54853
I1
sI54854
I1
sI54856
I1
sI54857
I1
sI54858
I1
sI54859
I1
sI54860
I1
sI54861
I1
sI54862
I1
sI120400
I1
sI54865
I1
sI54866
I1
sI54867
I1
sI54868
I1
sI80142
I1
sI120406
I1
sI54872
I1
sI54874
I1
sI54875
I1
sI284252
I1
sI54877
I1
sI284254
I1
sI54879
I1
sI54880
I1
sI54881
I1
sI54882
I1
sI54885
I1
sI375057
I1
sI54888
I1
sI120425
I1
sI54891
I1
sI54892
I1
sI54893
I1
sI54894
I1
sI54896
I1
sI153201
I1
sI284274
I1
sI54899
I1
sI54900
I1
sI54901
I1
sI54902
I1
sI54903
I1
sI54904
I1
sI54905
I1
sI54906
I1
sI54908
I1
sI54910
I1
sI54914
I1
sI54916
I1
sI284293
I1
sI153222
I1
sI54920
I1
sI284297
I1
sI54922
I1
sI54923
I1
sI54925
I1
sI54926
I1
sI54927
I1
sI54929
I1
sI54930
I1
sI284307
I1
sI54932
I1
sI54933
I1
sI54936
I1
sI153241
I1
sI54938
I1
sI54939
I1
sI54940
I1
sI54941
I1
sI54942
I1
sI54946
I1
sI284323
I1
sI284325
I1
sI54951
I1
sI54952
I1
sI54953
I1
sI54954
I1
sI54955
I1
sI54956
I1
sI54957
I1
sI54958
I1
sI54959
I1
sI54960
I1
sI54961
I1
sI54962
I1
sI284339
I1
sI54965
I1
sI54967
I1
sI54968
I1
sI54969
I1
sI54970
I1
sI54971
I1
sI54972
I1
sI284349
I1
sI54974
I1
sI284352
I1
sI284353
I1
sI54979
I1
sI54981
I1
sI284358
I1
sI284359
I1
sI54984
I1
sI54985
I1
sI54986
I1
sI54987
I1
sI54988
I1
sI100288687
I1
sI120526
I1
sI54991
I1
sI54993
I1
sI284370
I1
sI54995
I1
sI54996
I1
sI54997
I1
sI120534
I1
sI55001
I1
sI55002
I1
sI55003
I1
sI55005
I1
sI55006
I1
sI55007
I1
sI55008
I1
sI55010
I1
sI55011
I1
sI55012
I1
sI55013
I1
sI55014
I1
sI55016
I1
sI3708
I1
sI55020
I1
sI55022
I1
sI55023
I1
sI153328
I1
sI112936
I1
sI55026
I1
sI284403
I1
sI55028
I1
sI55030
I1
sI112937
I1
sI55035
I1
sI55036
I1
sI284415
I1
sI284417
I1
sI55048
I1
sI55049
I1
sI55051
I1
sI55052
I1
sI55054
I1
sI55055
I1
sI55057
I1
sI284434
I1
sI55061
I1
sI55062
I1
sI284439
I1
sI55064
I1
sI55066
I1
sI284443
I1
sI55068
I1
sI55070
I1
sI55072
I1
sI55074
I1
sI55075
I1
sI55076
I1
sI55080
I1
sI284459
I1
sI55084
I1
sI55086
I1
sI55088
I1
sI284467
I1
sI55092
I1
sI55093
I1
sI55094
I1
sI55095
I1
sI100128569
I1
sI55100
I1
sI55101
I1
sI55102
I1
sI55103
I1
sI55105
I1
sI55106
I1
sI55107
I1
sI55108
I1
sI55110
I1
sI55111
I1
sI55112
I1
sI55113
I1
sI55114
I1
sI55116
I1
sI55117
I1
sI55118
I1
sI55119
I1
sI55120
I1
sI284498
I1
sI55124
I1
sI55125
I1
sI55128
I1
sI55129
I1
sI55130
I1
sI55131
I1
sI55132
I1
sI55133
I1
sI55135
I1
sI55137
I1
sI55138
I1
sI55139
I1
sI55140
I1
sI55142
I1
sI55145
I1
sI55146
I1
sI55147
I1
sI284525
I1
sI55151
I1
sI55152
I1
sI55153
I1
sI55154
I1
sI55156
I1
sI55157
I1
sI55159
I1
sI55160
I1
sI55163
I1
sI55164
I1
sI55165
I1
sI55166
I1
sI55167
I1
sI55168
I1
sI644994
I1
sI55171
I1
sI55172
I1
sI55173
I1
sI153478
I1
sI55176
I1
sI55177
I1
sI55178
I1
sI55179
I1
sI55180
I1
sI55182
I1
sI55183
I1
sI55184
I1
sI55186
I1
sI55188
I1
sI55192
I1
sI55193
I1
sI55195
I1
sI55196
I1
sI55197
I1
sI55198
I1
sI55199
I1
sI55200
I1
sI55201
I1
sI645027
I1
sI55204
I1
sI55205
I1
sI55206
I1
sI55208
I1
sI55209
I1
sI55210
I1
sI55211
I1
sI55212
I1
sI55213
I1
sI55214
I1
sI55215
I1
sI55216
I1
sI55217
I1
sI55218
I1
sI55219
I1
sI55222
I1
sI55223
I1
sI55224
I1
sI55225
I1
sI55226
I1
sI55227
I1
sI55228
I1
sI55229
I1
sI55230
I1
sI55233
I1
sI55234
I1
sI55236
I1
sI284613
I1
sI55238
I1
sI55239
I1
sI55240
I1
sI55243
I1
sI55245
I1
sI55246
I1
sI55247
I1
sI55248
I1
sI55249
I1
sI55250
I1
sI55251
I1
sI55252
I1
sI55253
I1
sI55254
I1
sI55255
I1
sI55256
I1
sI153562
I1
sI55259
I1
sI55260
I1
sI55262
I1
sI153571
I1
sI55268
I1
sI55269
I1
sI55270
I1
sI55274
I1
sI153579
I1
sI55276
I1
sI55277
I1
sI284654
I1
sI55279
I1
sI55280
I1
sI55282
I1
sI55283
I1
sI55284
I1
sI55285
I1
sI55287
I1
sI55288
I1
sI55289
I1
sI55291
I1
sI219902
I1
sI55293
I1
sI55294
I1
sI80213
I1
sI55296
I1
sI55297
I1
sI55298
I1
sI55300
I1
sI55301
I1
sI55303
I1
sI55304
I1
sI55308
I1
sI55311
I1
sI55313
I1
sI55314
I1
sI55315
I1
sI284695
I1
sI55320
I1
sI55321
I1
sI55322
I1
sI55323
I1
sI55324
I1
sI55326
I1
sI120863
I1
sI55328
I1
sI55331
I1
sI55332
I1
sI55334
I1
sI55335
I1
sI55337
I1
sI153642
I1
sI153643
I1
sI284716
I1
sI55341
I1
sI55342
I1
sI55343
I1
sI55345
I1
sI55346
I1
sI55347
I1
sI55349
I1
sI55351
I1
sI55352
I1
sI153657
I1
sI55355
I1
sI55356
I1
sI55357
I1
sI55359
I1
sI55362
I1
sI55364
I1
sI55365
I1
sI55367
I1
sI55374
I1
sI284756
I1
sI284759
I1
sI80228
I1
sI55388
I1
sI120935
I1
sI120939
I1
sI113000
I1
sI353299
I1
sI55421
I1
sI55423
I1
sI55425
I1
sI153733
I1
sI55432
I1
sI55435
I1
sI55437
I1
sI219287
I1
sI55454
I1
sI153768
I1
sI153769
I1
sI153770
I1
sI121006
I1
sI55471
I1
sI55486
I1
sI219333
I1
sI55500
I1
sI55502
I1
sI55504
I1
sI317649
I1
sI55507
I1
sI55508
I1
sI55509
I1
sI55510
I1
sI55511
I1
sI55512
I1
sI9252
I1
sI55515
I1
sI100128988
I1
sI317662
I1
sI55521
I1
sI153830
I1
sI317671
I1
sI284904
I1
sI55529
I1
sI55531
I1
sI55532
I1
sI55536
I1
sI3795
I1
sI55540
I1
sI55544
I1
sI55552
I1
sI55553
I1
sI55554
I1
sI55556
I1
sI347862
I1
sI55558
I1
sI317703
I1
sI55561
I1
sI200407
I1
sI22796
I1
sI80258
I1
sI22798
I1
sI22800
I1
sI22801
I1
sI22802
I1
sI22803
I1
sI284948
I1
sI55573
I1
sI22806
I1
sI22807
I1
sI22808
I1
sI55577
I1
sI55578
I1
sI730159
I1
sI642778
I1
sI55582
I1
sI55586
I1
sI55588
I1
sI55589
I1
sI22823
I1
sI22824
I1
sI55593
I1
sI22827
I1
sI22828
I1
sI22832
I1
sI55601
I1
sI22834
I1
sI22835
I1
sI22836
I1
sI317749
I1
sI22838
I1
sI22839
I1
sI55608
I1
sI22841
I1
sI317754
I1
sI22843
I1
sI22844
I1
sI22846
I1
sI448831
I1
sI284992
I1
sI55617
I1
sI317762
I1
sI55619
I1
sI284996
I1
sI55621
I1
sI55622
I1
sI55623
I1
sI55624
I1
sI55625
I1
sI55626
I1
sI22859
I1
sI55628
I1
sI22861
I1
sI22862
I1
sI55631
I1
sI55632
I1
sI55633
I1
sI22866
I1
sI55635
I1
sI55636
I1
sI317781
I1
sI55638
I1
sI22871
I1
sI285016
I1
sI22873
I1
sI22874
I1
sI55643
I1
sI22876
I1
sI22877
I1
sI22878
I1
sI22879
I1
sI22880
I1
sI285025
I1
sI55651
I1
sI55652
I1
sI55653
I1
sI55654
I1
sI55655
I1
sI22888
I1
sI55657
I1
sI55658
I1
sI55659
I1
sI55660
I1
sI22893
I1
sI55662
I1
sI55663
I1
sI3816
I1
sI55666
I1
sI55667
I1
sI55668
I1
sI55669
I1
sI22902
I1
sI55671
I1
sI22904
I1
sI22905
I1
sI22906
I1
sI285051
I1
sI55676
I1
sI55677
I1
sI22911
I1
sI55680
I1
sI22913
I1
sI22915
I1
sI55684
I1
sI145814
I1
sI55686
I1
sI88455
I1
sI22920
I1
sI22921
I1
sI55690
I1
sI121227
I1
sI55692
I1
sI22925
I1
sI22926
I1
sI22927
I1
sI55697
I1
sI22930
I1
sI22931
I1
sI55700
I1
sI22933
I1
sI55703
I1
sI55704
I1
sI22937
I1
sI55706
I1
sI55707
I1
sI22941
I1
sI55711
I1
sI22944
I1
sI55713
I1
sI55714
I1
sI55715
I1
sI22948
I1
sI22949
I1
sI55718
I1
sI55719
I1
sI55721
I1
sI55722
I1
sI22955
I1
sI121260
I1
sI55726
I1
sI55727
I1
sI55728
I1
sI55729
I1
sI55731
I1
sI55732
I1
sI55733
I1
sI55734
I1
sI55735
I1
sI121273
I1
sI121274
I1
sI154043
I1
sI55740
I1
sI55741
I1
sI55742
I1
sI55743
I1
sI55744
I1
sI22977
I1
sI22978
I1
sI22979
I1
sI55748
I1
sI22981
I1
sI22982
I1
sI22983
I1
sI22984
I1
sI22985
I1
sI55754
I1
sI55755
I1
sI55756
I1
sI22989
I1
sI55758
I1
sI55759
I1
sI22992
I1
sI55761
I1
sI22994
I1
sI55763
I1
sI22996
I1
sI285141
I1
sI22998
I1
sI22999
I1
sI55768
I1
sI23002
I1
sI154075
I1
sI285148
I1
sI55773
I1
sI55775
I1
sI55776
I1
sI55777
I1
sI55778
I1
sI55779
I1
sI55780
I1
sI219621
I1
sI23014
I1
sI219623
I1
sI55784
I1
sI23017
I1
sI55786
I1
sI23019
I1
sI55788
I1
sI55789
I1
sI55790
I1
sI55791
I1
sI23024
I1
sI55793
I1
sI23026
I1
sI55795
I1
sI23028
I1
sI23029
I1
sI23030
I1
sI55799
I1
sI23032
I1
sI23033
I1
sI55802
I1
sI23035
I1
sI121340
I1
sI55805
I1
sI23038
I1
sI23039
I1
sI55808
I1
sI23041
I1
sI23042
I1
sI55811
I1
sI55812
I1
sI55813
I1
sI219654
I1
sI23047
I1
sI23048
I1
sI55818
I1
sI285195
I1
sI23053
I1
sI23054
I1
sI80301
I1
sI55825
I1
sI55827
I1
sI23061
I1
sI219670
I1
sI23063
I1
sI23064
I1
sI23065
I1
sI1859
I1
sI55835
I1
sI154141
I1
sI23070
I1
sI55839
I1
sI55840
I1
sI219681
I1
sI23074
I1
sI55843
I1
sI285220
I1
sI55846
I1
sI55847
I1
sI23080
I1
sI23081
I1
sI23082
I1
sI55852
I1
sI23085
I1
sI23086
I1
sI285231
I1
sI55856
I1
sI55857
I1
sI23090
I1
sI219699
I1
sI23092
I1
sI285237
I1
sI55862
I1
sI55863
I1
sI23096
I1
sI23097
I1
sI285242
I1
sI55867
I1
sI55869
I1
sI55870
I1
sI55871
I1
sI55872
I1
sI23105
I1
sI23107
I1
sI23108
I1
sI23109
I1
sI55879
I1
sI23112
I1
sI23113
I1
sI23114
I1
sI55884
I1
sI55885
I1
sI23118
I1
sI23119
I1
sI23120
I1
sI55889
I1
sI23122
I1
sI285267
I1
sI55892
I1
sI23125
I1
sI23126
I1
sI23127
I1
sI219736
I1
sI23129
I1
sI23130
I1
sI23131
I1
sI55900
I1
sI23133
I1
sI55902
I1
sI23135
I1
sI23136
I1
sI23137
I1
sI285282
I1
sI23139
I1
sI23140
I1
sI55909
I1
sI23142
I1
sI154215
I1
sI23144
I1
sI55914
I1
sI23148
I1
sI23149
I1
sI23150
I1
sI23151
I1
sI23152
I1
sI121457
I1
sI23154
I1
sI23155
I1
sI55924
I1
sI23157
I1
sI23161
I1
sI55930
I1
sI23163
I1
sI23164
I1
sI23165
I1
sI23166
I1
sI23167
I1
sI55937
I1
sI285315
I1
sI23172
I1
sI23173
I1
sI23174
I1
sI23175
I1
sI23176
I1
sI23177
I1
sI23178
I1
sI23179
I1
sI23180
I1
sI23181
I1
sI219790
I1
sI23185
I1
sI285331
I1
sI23189
I1
sI23191
I1
sI23192
I1
sI23193
I1
sI23194
I1
sI55964
I1
sI23197
I1
sI55966
I1
sI55967
I1
sI55968
I1
sI55969
I1
sI121506
I1
sI23203
I1
sI23204
I1
sI55973
I1
sI55974
I1
sI55975
I1
sI121512
I1
sI23209
I1
sI23210
I1
sI23211
I1
sI23213
I1
sI23214
I1
sI23215
I1
sI23216
I1
sI23217
I1
sI23218
I1
sI23219
I1
sI23220
I1
sI23221
I1
sI23223
I1
sI285368
I1
sI23225
I1
sI23228
I1
sI55997
I1
sI23231
I1
sI121536
I1
sI23233
I1
sI23235
I1
sI23236
I1
sI56005
I1
sI56006
I1
sI23239
I1
sI23240
I1
sI23241
I1
sI285386
I1
sI23243
I1
sI23244
I1
sI23245
I1
sI219854
I1
sI121551
I1
sI23248
I1
sI23250
I1
sI23252
I1
sI23253
I1
sI23254
I1
sI23255
I1
sI23256
I1
sI219865
I1
sI23258
I1
sI23259
I1
sI23261
I1
sI23262
I1
sI23263
I1
sI23264
I1
sI23265
I1
sI23266
I1
sI23268
I1
sI23271
I1
sI23272
I1
sI23274
I1
sI23275
I1
sI23276
I1
sI23277
I1
sI285423
I1
sI23281
I1
sI23284
I1
sI23285
I1
sI23286
I1
sI23287
I1
sI23288
I1
sI23291
I1
sI56061
I1
sI56062
I1
sI23295
I1
sI285440
I1
sI121601
I1
sI23299
I1
sI23300
I1
sI23301
I1
sI23302
I1
sI23303
I1
sI23304
I1
sI23305
I1
sI23306
I1
sI23307
I1
sI23308
I1
sI23309
I1
sI23310
I1
sI134957
I1
sI23313
I1
sI23314
I1
sI23315
I1
sI23316
I1
sI23317
I1
sI23318
I1
sI219927
I1
sI23321
I1
sI23322
I1
sI219931
I1
sI23324
I1
sI23325
I1
sI23326
I1
sI23327
I1
sI23328
I1
sI23329
I1
sI56098
I1
sI113115
I1
sI56100
I1
sI56101
I1
sI56102
I1
sI56103
I1
sI56104
I1
sI56105
I1
sI121642
I1
sI121643
I1
sI56108
I1
sI23341
I1
sI56110
I1
sI56111
I1
sI23344
I1
sI56113
I1
sI56114
I1
sI23347
I1
sI23348
I1
sI23349
I1
sI23350
I1
sI23351
I1
sI23353
I1
sI285498
I1
sI23355
I1
sI285500
I1
sI23357
I1
sI23358
I1
sI23359
I1
sI23360
I1
sI23361
I1
sI56130
I1
sI23363
I1
sI23365
I1
sI23366
I1
sI23367
I1
sI56136
I1
sI23369
I1
sI56138
I1
sI56139
I1
sI56140
I1
sI56141
I1
sI56142
I1
sI56143
I1
sI56144
I1
sI56145
I1
sI23378
I1
sI23379
I1
sI23380
I1
sI285525
I1
sI23382
I1
sI23383
I1
sI23384
I1
sI23385
I1
sI56154
I1
sI219995
I1
sI170589
I1
sI23390
I1
sI56159
I1
sI23392
I1
sI220001
I1
sI23394
I1
sI56163
I1
sI23396
I1
sI56165
I1
sI23398
I1
sI23400
I1
sI56169
I1
sI613227
I1
sI56172
I1
sI23405
I1
sI23408
I1
sI23409
I1
sI23410
I1
sI285555
I1
sI56180
I1
sI23413
I1
sI23414
I1
sI23415
I1
sI23416
I1
sI23418
I1
sI23421
I1
sI23423
I1
sI23424
I1
sI23426
I1
sI646019
I1
sI23428
I1
sI100129669
I1
sI23431
I1
sI23432
I1
sI23433
I1
sI220042
I1
sI56204
I1
sI23438
I1
sI220047
I1
sI23443
I1
sI285588
I1
sI285590
I1
sI23451
I1
sI23452
I1
sI285598
I1
sI23456
I1
sI23457
I1
sI23460
I1
sI285605
I1
sI23462
I1
sI23463
I1
sI23464
I1
sI220074
I1
sI23469
I1
sI23471
I1
sI220081
I1
sI220082
I1
sI23475
I1
sI23476
I1
sI56245
I1
sI23478
I1
sI23479
I1
sI23481
I1
sI23483
I1
sI23484
I1
sI56253
I1
sI56256
I1
sI121793
I1
sI23491
I1
sI23492
I1
sI23493
I1
sI56265
I1
sI23498
I1
sI220107
I1
sI23500
I1
sI56269
I1
sI56270
I1
sI23503
I1
sI23504
I1
sI23505
I1
sI23507
I1
sI252884
I1
sI23509
I1
sI23510
I1
sI23512
I1
sI23513
I1
sI23514
I1
sI23515
I1
sI23516
I1
sI23518
I1
sI56288
I1
sI23521
I1
sI23522
I1
sI23523
I1
sI285668
I1
sI23526
I1
sI23527
I1
sI285672
I1
sI23529
I1
sI23530
I1
sI23531
I1
sI56300
I1
sI56301
I1
sI23534
I1
sI80381
I1
sI23536
I1
sI118611
I1
sI23541
I1
sI23542
I1
sI23543
I1
sI23544
I1
sI23546
I1
sI23549
I1
sI23550
I1
sI23551
I1
sI23552
I1
sI23553
I1
sI23554
I1
sI23555
I1
sI23556
I1
sI23558
I1
sI285704
I1
sI9388
I1
sI9389
I1
sI23568
I1
sI23569
I1
sI56339
I1
sI56341
I1
sI23576
I1
sI23581
I1
sI23582
I1
sI23583
I1
sI23585
I1
sI89122
I1
sI23587
I1
sI23588
I1
sI23589
I1
sI23590
I1
sI23592
I1
sI252969
I1
sI23594
I1
sI23595
I1
sI23597
I1
sI23598
I1
sI23600
I1
sI23601
I1
sI23603
I1
sI23604
I1
sI23607
I1
sI23608
I1
sI285753
I1
sI285755
I1
sI23613
I1
sI9397
I1
sI285761
I1
sI252995
I1
sI23620
I1
sI23621
I1
sI23623
I1
sI23624
I1
sI23625
I1
sI23626
I1
sI23632
I1
sI23633
I1
sI23635
I1
sI253012
I1
sI23637
I1
sI285782
I1
sI23639
I1
sI23640
I1
sI253017
I1
sI23643
I1
sI23647
I1
sI23648
I1
sI23649
I1
sI23650
I1
sI23654
I1
sI23657
I1
sI23658
I1
sI23659
I1
sI23660
I1
sI23670
I1
sI23671
I1
sI23678
I1
sI23682
I1
sI23683
I1
sI145942
I1
sI220296
I1
sI100129940
I1
sI285848
I1
sI23705
I1
sI56474
I1
sI56477
I1
sI23710
I1
sI56479
I1
sI154790
I1
sI154796
I1
sI100129969
I1
sI23731
I1
sI23732
I1
sI154807
I1
sI154810
I1
sI122046
I1
sI23743
I1
sI23746
I1
sI56521
I1
sI122060
I1
sI23759
I1
sI23760
I1
sI23762
I1
sI23764
I1
sI23765
I1
sI253143
I1
sI23770
I1
sI23774
I1
sI23779
I1
sI23780
I1
sI285596
I1
sI23786
I1
sI23787
I1
sI23788
I1
sI154865
I1
sI285941
I1
sI220416
I1
sI154881
I1
sI285955
I1
sI253190
I1
sI285966
I1
sI646424
I1
sI56603
I1
sI56605
I1
sI56606
I1
sI285989
I1
sI56616
I1
sI25820
I1
sI56623
I1
sI56624
I1
sI105372977
I1
sI646457
I1
sI203286
I1
sI56647
I1
sI56649
I1
sI56650
I1
sI253260
I1
sI56658
I1
sI6251
I1
sI56666
I1
sI286046
I1
sI56672
I1
sI646498
I1
sI286053
I1
sI91369
I1
sI286075
I1
sI286077
I1
sI155006
I1
sI140462
I1
sI286097
I1
sI122258
I1
sI25839
I1
sI155038
I1
sI286122
I1
sI155051
I1
sI729993
I1
sI155061
I1
sI25844
I1
sI155066
I1
sI646588
I1
sI286148
I1
sI286151
I1
sI56776
I1
sI55810
I1
sI286183
I1
sI646643
I1
sI253430
I1
sI255231
I1
sI286204
I1
sI56829
I1
sI286207
I1
sI56833
I1
sI56834
I1
sI9473
I1
sI286223
I1
sI56848
I1
sI56850
I1
sI56852
I1
sI56853
I1
sI122402
I1
sI140467
I1
sI100130348
I1
sI286256
I1
sI155185
I1
sI56884
I1
sI56886
I1
sI56888
I1
sI56889
I1
sI56890
I1
sI56891
I1
sI56893
I1
sI56894
I1
sI56895
I1
sI56897
I1
sI56898
I1
sI56899
I1
sI56900
I1
sI56901
I1
sI56904
I1
sI24139
I1
sI24140
I1
sI24141
I1
sI24142
I1
sI56911
I1
sI56912
I1
sI56913
I1
sI56914
I1
sI56916
I1
sI56917
I1
sI56918
I1
sI56919
I1
sI56922
I1
sI56923
I1
sI56924
I1
sI56925
I1
sI56926
I1
sI56927
I1
sI56928
I1
sI56929
I1
sI56931
I1
sI56934
I1
sI56935
I1
sI56937
I1
sI56938
I1
sI56940
I1
sI56941
I1
sI56942
I1
sI56943
I1
sI56944
I1
sI319089
I1
sI56946
I1
sI56947
I1
sI56948
I1
sI253558
I1
sI253559
I1
sI56952
I1
sI25876
I1
sI56955
I1
sI56956
I1
sI319101
I1
sI286336
I1
sI56963
I1
sI56964
I1
sI56965
I1
sI286343
I1
sI56970
I1
sI56971
I1
sI122509
I1
sI253582
I1
sI56975
I1
sI56977
I1
sI56978
I1
sI56980
I1
sI56981
I1
sI56983
I1
sI56984
I1
sI56985
I1
sI56986
I1
sI56987
I1
sI122525
I1
sI56992
I1
sI56994
I1
sI56995
I1
sI56996
I1
sI89765
I1
sI89766
I1
sI56999
I1
sI57002
I1
sI89777
I1
sI57010
I1
sI89780
I1
sI89781
I1
sI89782
I1
sI57016
I1
sI122553
I1
sI57018
I1
sI57019
I1
sI57020
I1
sI89790
I1
sI89792
I1
sI89795
I1
sI89796
I1
sI89797
I1
sI253639
I1
sI147463
I1
sI286410
I1
sI57037
I1
sI57038
I1
sI253650
I1
sI57047
I1
sI100130520
I1
sI57053
I1
sI89822
I1
sI57057
I1
sI57060
I1
sI155368
I1
sI646892
I1
sI113277
I1
sI548593
I1
sI286451
I1
sI548596
I1
sI89845
I1
sI89846
I1
sI89848
I1
sI89849
I1
sI122618
I1
sI89853
I1
sI122622
I1
sI57088
I1
sI89857
I1
sI89858
I1
sI57091
I1
sI57092
I1
sI57093
I1
sI57094
I1
sI57095
I1
sI57096
I1
sI57097
I1
sI57099
I1
sI57101
I1
sI57102
I1
sI57104
I1
sI253714
I1
sI57107
I1
sI89876
I1
sI57109
I1
sI57110
I1
sI57113
I1
sI89882
I1
sI57115
I1
sI57116
I1
sI253725
I1
sI89886
I1
sI89887
I1
sI57120
I1
sI57122
I1
sI220963
I1
sI220965
I1
sI57126
I1
sI57127
I1
sI122664
I1
sI57129
I1
sI253738
I1
sI155435
I1
sI220972
I1
sI91442
I1
sI57134
I1
sI57136
I1
sI57139
I1
sI57140
I1
sI89910
I1
sI57143
I1
sI57146
I1
sI57147
I1
sI220988
I1
sI154661
I1
sI57150
I1
sI91445
I1
sI220992
I1
sI57153
I1
sI286530
I1
sI342667
I1
sI57157
I1
sI285600
I1
sI57159
I1
sI155465
I1
sI221002
I1
sI89932
I1
sI4066
I1
sI57167
I1
sI122704
I1
sI57169
I1
sI57171
I1
sI57172
I1
sI89941
I1
sI253782
I1
sI57176
I1
sI57178
I1
sI57179
I1
sI57180
I1
sI57181
I1
sI57182
I1
sI57184
I1
sI57185
I1
sI57186
I1
sI57187
I1
sI57188
I1
sI57190
I1
sI57194
I1
sI221035
I1
sI221037
I1
sI57198
I1
sI89970
I1
sI221044
I1
sI57205
I1
sI57209
I1
sI57210
I1
sI57211
I1
sI57213
I1
sI64149
I1
sI57216
I1
sI57217
I1
sI253827
I1
sI221061
I1
sI57222
I1
sI57223
I1
sI57224
I1
sI57231
I1
sI57232
I1
sI122769
I1
sI221074
I1
sI647060
I1
sI122773
I1
sI221078
I1
sI90007
I1
sI9540
I1
sI122786
I1
sI90019
I1
sI90025
I1
sI57282
I1
sI90060
I1
sI286676
I1
sI90075
I1
sI221150
I1
sI221154
I1
sI57326
I1
sI253935
I1
sI57333
I1
sI90102
I1
sI57335
I1
sI57337
I1
sI57338
I1
sI57343
I1
sI90113
I1
sI57348
I1
sI647174
I1
sI253959
I1
sI100130827
I1
sI90134
I1
sI90135
I1
sI57369
I1
sI90139
I1
sI253980
I1
sI90141
I1
sI253982
I1
sI57379
I1
sI57380
I1
sI57381
I1
sI221223
I1
sI25948
I1
sI2346
I1
sI90161
I1
sI90167
I1
sI57404
I1
sI57405
I1
sI57406
I1
sI57407
I1
sI57408
I1
sI57409
I1
sI57410
I1
sI57413
I1
sI57414
I1
sI57415
I1
sI122953
I1
sI57418
I1
sI221264
I1
sI122961
I1
sI90196
I1
sI90199
I1
sI254042
I1
sI90203
I1
sI25957
I1
sI254048
I1
sI254050
I1
sI57446
I1
sI57447
I1
sI57449
I1
sI286826
I1
sI57451
I1
sI57452
I1
sI57453
I1
sI221294
I1
sI57455
I1
sI57456
I1
sI254065
I1
sI57458
I1
sI57460
I1
sI57461
I1
sI221302
I1
sI90231
I1
sI57464
I1
sI57465
I1
sI57466
I1
sI57467
I1
sI57468
I1
sI57471
I1
sI57472
I1
sI57473
I1
sI57475
I1
sI57476
I1
sI57477
I1
sI57478
I1
sI57479
I1
sI57480
I1
sI57481
I1
sI57482
I1
sI57484
I1
sI57486
I1
sI57489
I1
sI57491
I1
sI57492
I1
sI57493
I1
sI57494
I1
sI100130967
I1
sI57496
I1
sI57497
I1
sI90268
I1
sI57501
I1
sI57502
I1
sI57504
I1
sI90273
I1
sI57506
I1
sI57507
I1
sI57508
I1
sI57509
I1
sI57511
I1
sI57512
I1
sI57513
I1
sI57514
I1
sI100130988
I1
sI124274
I1
sI90288
I1
sI57521
I1
sI57522
I1
sI57523
I1
sI90293
I1
sI57526
I1
sI57528
I1
sI57531
I1
sI57532
I1
sI57533
I1
sI57534
I1
sI57535
I1
sI57536
I1
sI57537
I1
sI57538
I1
sI57539
I1
sI57540
I1
sI57541
I1
sI57542
I1
sI57544
I1
sI57545
I1
sI57547
I1
sI57549
I1
sI254158
I1
sI57551
I1
sI57552
I1
sI57553
I1
sI57554
I1
sI57555
I1
sI57556
I1
sI57558
I1
sI57559
I1
sI123096
I1
sI57562
I1
sI123099
I1
sI254173
I1
sI123103
I1
sI57568
I1
sI57569
I1
sI57570
I1
sI57571
I1
sI57572
I1
sI57573
I1
sI105373926
I1
sI57575
I1
sI57576
I1
sI57577
I1
sI57578
I1
sI254187
I1
sI57580
I1
sI221421
I1
sI57582
I1
sI57583
I1
sI57584
I1
sI57586
I1
sI57587
I1
sI57589
I1
sI57591
I1
sI57592
I1
sI57593
I1
sI57595
I1
sI57596
I1
sI57597
I1
sI57599
I1
sI57600
I1
sI57602
I1
sI57604
I1
sI57605
I1
sI57606
I1
sI57608
I1
sI57609
I1
sI57610
I1
sI57611
I1
sI57613
I1
sI57614
I1
sI57617
I1
sI221458
I1
sI57619
I1
sI57620
I1
sI57621
I1
sI90390
I1
sI57623
I1
sI57624
I1
sI57626
I1
sI221468
I1
sI57631
I1
sI254240
I1
sI123169
I1
sI221476
I1
sI221477
I1
sI287015
I1
sI221481
I1
sI57642
I1
sI254251
I1
sI57644
I1
sI57645
I1
sI57646
I1
sI57647
I1
sI57648
I1
sI90417
I1
sI57650
I1
sI221491
I1
sI57654
I1
sI57655
I1
sI221496
I1
sI57657
I1
sI57658
I1
sI90427
I1
sI57661
I1
sI57662
I1
sI254272
I1
sI57666
I1
sI57669
I1
sI57670
I1
sI123207
I1
sI57677
I1
sI57679
I1
sI57680
I1
sI57683
I1
sI57685
I1
sI254295
I1
sI57688
I1
sI57690
I1
sI57691
I1
sI123228
I1
sI57693
I1
sI57695
I1
sI57696
I1
sI57697
I1
sI57698
I1
sI57699
I1
sI57700
I1
sI57701
I1
sI57704
I1
sI221545
I1
sI57706
I1
sI57707
I1
sI57708
I1
sI9618
I1
sI56478
I1
sI57711
I1
sI57713
I1
sI100131187
I1
sI57716
I1
sI57718
I1
sI57719
I1
sI57720
I1
sI57721
I1
sI57722
I1
sI57724
I1
sI57727
I1
sI57728
I1
sI57730
I1
sI57731
I1
sI57732
I1
sI90506
I1
sI100131211
I1
sI168002
I1
sI123283
I1
sI254359
I1
sI90522
I1
sI90523
I1
sI90525
I1
sI57758
I1
sI90527
I1
sI57761
I1
sI140699
I1
sI647589
I1
sI9628
I1
sI90550
I1
sI254394
I1
sI57787
I1
sI90557
I1
sI57794
I1
sI57795
I1
sI57799
I1
sI101060684
I1
sI57804
I1
sI57805
I1
sI90576
I1
sI9635
I1
sI221656
I1
sI57818
I1
sI123355
I1
sI57821
I1
sI221662
I1
sI57823
I1
sI90592
I1
sI57826
I1
sI57828
I1
sI9638
I1
sI55814
I1
sI57835
I1
sI221692
I1
sI90624
I1
sI90627
I1
sI57862
I1
sI57863
I1
sI90634
I1
sI90637
I1
sI51447
I1
sI90665
I1
sI105374250
I1
sI90668
I1
sI221749
I1
sI90678
I1
sI151647
I1
sI254528
I1
sI151648
I1
sI254531
I1
sI90701
I1
sI53347
I1
sI254552
I1
sI221785
I1
sI140730
I1
sI221806
I1
sI90736
I1
sI90737
I1
sI91584
I1
sI221833
I1
sI352909
I1
sI9667
I1
sI57579
I1
sI6296
I1
sI105374378
I1
sI222663
I1
sI90799
I1
sI90806
I1
sI26057
I1
sI90809
I1
sI352954
I1
sI51451
I1
sI221895
I1
sI90826
I1
sI90827
I1
sI90835
I1
sI221908
I1
sI123606
I1
sI90853
I1
sI221927
I1
sI123624
I1
sI221935
I1
sI90864
I1
sI221937
I1
sI221938
I1
sI90871
I1
sI90874
I1
sI221955
I1
sI105376731
I1
sI221981
I1
sI123688
I1
sI58155
I1
sI90933
I1
sI222008
I1
sI353088
I1
sI353091
I1
sI90952
I1
sI123722
I1
sI90956
I1
sI90957
I1
sI58190
I1
sI353116
I1
sI123745
I1
sI375612
I1
sI90987
I1
sI353133
I1
sI90990
I1
sI90993
I1
sI222068
I1
sI123775
I1
sI80704
I1
sI91010
I1
sI100033411
I1
sI91012
I1
sI123803
I1
sI4250
I1
sI91039
I1
sI123811
I1
sI353189
I1
sI254887
I1
sI91050
I1
sI124402
I1
sI91057
I1
sI124404
I1
sI91074
I1
sI56146
I1
sI285636
I1
sI123872
I1
sI91107
I1
sI123876
I1
sI222183
I1
sI254956
I1
sI9725
I1
sI91120
I1
sI100131827
I1
sI353274
I1
sI91133
I1
sI91137
I1
sI4126
I1
sI91147
I1
sI9730
I1
sI222223
I1
sI123920
I1
sI9731
I1
sI222229
I1
sI8463
I1
sI222234
I1
sI222235
I1
sI222236
I1
sI90326
I1
sI79415
I1
sI353322
I1
sI91179
I1
sI91181
I1
sI56134
I1
sI222255
I1
sI222256
I1
sI255027
I1
sI100131897
I1
sI353345
I1
sI255043
I1
sI353355
I1
sI255057
I1
sI138307
I1
sI255061
I1
sI91227
I1
sI113510
I1
sI58473
I1
sI58475
I1
sI58476
I1
sI58478
I1
sI285641
I1
sI91252
I1
sI200894
I1
sI58487
I1
sI58488
I1
sI58490
I1
sI58491
I1
sI58492
I1
sI255101
I1
sI58494
I1
sI58495
I1
sI255104
I1
sI58497
I1
sI58498
I1
sI58499
I1
sI58500
I1
sI206358
I1
sI58503
I1
sI58504
I1
sI58505
I1
sI58506
I1
sI127428
I1
sI124045
I1
sI58510
I1
sI58511
I1
sI58512
I1
sI58513
I1
sI91283
I1
sI58516
I1
sI58517
I1
sI140825
I1
sI124056
I1
sI91289
I1
sI58525
I1
sI25758
I1
sI25759
I1
sI58528
I1
sI91300
I1
sI58533
I1
sI25766
I1
sI91304
I1
sI25769
I1
sI58538
I1
sI25771
I1
sI25775
I1
sI25776
I1
sI25777
I1
sI25778
I1
sI25780
I1
sI222389
I1
sI91319
I1
sI25788
I1
sI124093
I1
sI25791
I1
sI25792
I1
sI25793
I1
sI25794
I1
sI25796
I1
sI25798
I1
sI25799
I1
sI25800
I1
sI25801
I1
sI25803
I1
sI25804
I1
sI25806
I1
sI25807
I1
sI25809
I1
sI26147
I1
sI25814
I1
sI91351
I1
sI25816
I1
sI25817
I1
sI91355
I1
sI353500
I1
sI25821
I1
sI25822
I1
sI25823
I1
sI25824
I1
sI25825
I1
sI25827
I1
sI25828
I1
sI25829
I1
sI25830
I1
sI25831
I1
sI91368
I1
sI25833
I1
sI25834
I1
sI26151
I1
sI25836
I1
sI25837
I1
sI80765
I1
sI90333
I1
sI25843
I1
sI255220
I1
sI124152
I1
sI25849
I1
sI25851
I1
sI25852
I1
sI25853
I1
sI25854
I1
sI25855
I1
sI25861
I1
sI25862
I1
sI255239
I1
sI25865
I1
sI91404
I1
sI25870
I1
sI25871
I1
sI91408
I1
sI91409
I1
sI25875
I1
sI255252
I1
sI25878
I1
sI222487
I1
sI113540
I1
sI91419
I1
sI25884
I1
sI25886
I1
sI25888
I1
sI25890
I1
sI25891
I1
sI375686
I1
sI25894
I1
sI25895
I1
sI25896
I1
sI25897
I1
sI25898
I1
sI25900
I1
sI25901
I1
sI25902
I1
sI25903
I1
sI25904
I1
sI25906
I1
sI25909
I1
sI25912
I1
sI25913
I1
sI25914
I1
sI25915
I1
sI91452
I1
sI25917
I1
sI124222
I1
sI25921
I1
sI25923
I1
sI25924
I1
sI25925
I1
sI25926
I1
sI25927
I1
sI25929
I1
sI25930
I1
sI25936
I1
sI222545
I1
sI222546
I1
sI25939
I1
sI25940
I1
sI25941
I1
sI25943
I1
sI100885848
I1
sI25945
I1
sI25946
I1
sI255324
I1
sI25949
I1
sI25950
I1
sI25953
I1
sI4326
I1
sI25959
I1
sI25960
I1
sI25961
I1
sI25962
I1
sI25963
I1
sI25966
I1
sI25970
I1
sI25972
I1
sI255349
I1
sI25974
I1
sI25975
I1
sI25978
I1
sI25979
I1
sI146325
I1
sI25984
I1
sI91373
I1
sI91522
I1
sI25987
I1
sI25988
I1
sI25989
I1
sI91526
I1
sI25992
I1
sI90338
I1
sI25994
I1
sI25998
I1
sI26000
I1
sI26001
I1
sI26002
I1
sI26003
I1
sI26005
I1
sI91543
I1
sI91544
I1
sI26009
I1
sI26010
I1
sI26011
I1
sI26012
I1
sI26013
I1
sI26015
I1
sI26017
I1
sI26018
I1
sI26019
I1
sI26020
I1
sI26025
I1
sI255403
I1
sI26030
I1
sI26031
I1
sI26032
I1
sI26033
I1
sI26034
I1
sI26035
I1
sI26036
I1
sI26037
I1
sI26039
I1
sI26040
I1
sI26043
I1
sI26046
I1
sI26047
I1
sI26048
I1
sI26049
I1
sI222658
I1
sI222659
I1
sI26052
I1
sI26053
I1
sI26054
I1
sI124359
I1
sI26056
I1
sI206412
I1
sI26058
I1
sI26059
I1
sI26060
I1
sI26061
I1
sI26064
I1
sI26065
I1
sI26071
I1
sI91608
I1
sI26073
I1
sI26074
I1
sI91612
I1
sI91614
I1
sI26083
I1
sI26084
I1
sI26086
I1
sI26088
I1
sI26090
I1
sI26091
I1
sI26092
I1
sI26094
I1
sI26095
I1
sI124401
I1
sI26098
I1
sI26099
I1
sI26100
I1
sI26103
I1
sI26108
I1
sI91646
I1
sI91647
I1
sI255488
I1
sI26115
I1
sI91653
I1
sI26118
I1
sI26119
I1
sI26122
I1
sI26123
I1
sI91662
I1
sI26127
I1
sI26128
I1
sI26130
I1
sI26133
I1
sI26135
I1
sI26136
I1
sI26137
I1
sI9818
I1
sI165631
I1
sI255520
I1
sI26146
I1
sI91683
I1
sI124454
I1
sI91687
I1
sI26152
I1
sI26153
I1
sI26154
I1
sI124460
I1
sI91694
I1
sI26160
I1
sI26164
I1
sI26166
I1
sI91703
I1
sI386617
I1
sI26207
I1
sI26173
I1
sI26175
I1
sI124491
I1
sI26190
I1
sI26191
I1
sI80824
I1
sI26205
I1
sI26206
I1
sI140901
I1
sI124512
I1
sI91746
I1
sI91748
I1
sI157285
I1
sI91750
I1
sI58985
I1
sI91754
I1
sI26224
I1
sI26225
I1
sI26227
I1
sI26228
I1
sI26229
I1
sI26230
I1
sI124535
I1
sI91768
I1
sI26233
I1
sI26234
I1
sI26235
I1
sI124540
I1
sI222826
I1
sI157310
I1
sI157313
I1
sI91782
I1
sI342977
I1
sI26249
I1
sI26251
I1
sI26253
I1
sI255631
I1
sI26256
I1
sI222865
I1
sI26258
I1
sI80835
I1
sI26260
I1
sI26261
I1
sI26262
I1
sI26263
I1
sI91801
I1
sI26266
I1
sI26267
I1
sI26268
I1
sI26269
I1
sI26271
I1
sI26272
I1
sI26273
I1
sI26275
I1
sI26276
I1
sI26277
I1
sI26279
I1
sI26280
I1
sI93621
I1
sI26284
I1
sI26286
I1
sI26287
I1
sI26289
I1
sI91828
I1
sI124599
I1
sI91833
I1
sI26298
I1
sI59067
I1
sI26301
I1
sI157378
I1
sI26231
I1
sI59084
I1
sI124626
I1
sI91860
I1
sI91862
I1
sI26330
I1
sI124637
I1
sI105375355
I1
sI222950
I1
sI550631
I1
sI26354
I1
sI222967
I1
sI255743
I1
sI113622
I1
sI255762
I1
sI91937
I1
sI91949
I1
sI55823
I1
sI255798
I1
sI91966
I1
sI124739
I1
sI91975
I1
sI140545
I1
sI124751
I1
sI55605
I1
sI100820829
I1
sI92002
I1
sI223075
I1
sI26468
I1
sI26469
I1
sI26470
I1
sI26471
I1
sI26476
I1
sI92017
I1
sI26259
I1
sI124790
I1
sI84899
I1
sI124565
I1
sI124801
I1
sI157570
I1
sI26499
I1
sI59269
I1
sI26502
I1
sI26503
I1
sI124808
I1
sI26505
I1
sI26507
I1
sI26508
I1
sI26509
I1
sI26511
I1
sI26512
I1
sI124817
I1
sI59284
I1
sI59285
I1
sI26520
I1
sI26523
I1
sI26524
I1
sI26526
I1
sI26528
I1
sI59307
I1
sI255919
I1
sI26548
I1
sI92086
I1
sI255928
I1
sI124857
I1
sI91807
I1
sI92092
I1
sI157638
I1
sI124872
I1
sI92105
I1
sI92106
I1
sI59339
I1
sI59340
I1
sI59341
I1
sI26574
I1
sI59343
I1
sI26576
I1
sI26578
I1
sI26579
I1
sI26580
I1
sI59349
I1
sI59350
I1
sI387032
I1
sI157657
I1
sI26586
I1
sI255967
I1
sI92129
I1
sI255119
I1
sI124912
I1
sI26609
I1
sI26610
I1
sI92154
I1
sI124925
I1
sI157695
I1
sI157697
I1
sI124930
I1
sI643414
I1
sI256006
I1
sI124935
I1
sI124936
I1
sI124944
I1
sI9616
I1
sI25983
I1
sI92181
I1
sI8525
I1
sI56261
I1
sI157724
I1
sI387103
I1
sI26659
I1
sI26664
I1
sI124975
I1
sI92211
I1
sI387129
I1
sI124989
I1
sI124995
I1
sI124997
I1
sI157769
I1
sI92235
I1
sI256076
I1
sI92241
I1
sI26716
I1
sI124602
I1
sI92255
I1
sI9619
I1
sI92270
I1
sI92283
I1
sI256126
I1
sI26751
I1
sI23528
I1
sI125058
I1
sI92291
I1
sI92292
I1
sI125061
I1
sI26762
I1
sI285676
I1
sI92305
I1
sI157848
I1
sI282991
I1
sI157855
I1
sI22938
I1
sI157869
I1
sI92335
I1
sI92340
I1
sI92344
I1
sI92345
I1
sI92346
I1
sI125115
I1
sI221301
I1
sI91851
I1
sI92359
I1
sI375743
I1
sI92369
I1
sI92370
I1
sI157922
I1
sI256227
I1
sI285679
I1
sI92399
I1
sI125170
I1
sI26873
I1
sI387338
I1
sI125206
I1
sI256281
I1
sI387357
I1
sI4485
I1
sI164284
I1
sI91869
I1
sI256309
I1
sI92482
I1
sI256329
I1
sI26958
I1
sI26959
I1
sI26960
I1
sI26973
I1
sI26974
I1
sI343099
I1
sI256356
I1
sI26985
I1
sI256364
I1
sI26993
I1
sI158067
I1
sI26996
I1
sI26998
I1
sI26999
I1
sI27000
I1
sI256380
I1
sI27005
I1
sI27006
I1
sI27010
I1
sI256394
I1
sI27019
I1
sI27020
I1
sI92558
I1
sI64579
I1
sI92565
I1
sI27030
I1
sI125336
I1
sI27033
I1
sI27034
I1
sI27035
I1
sI27036
I1
sI27037
I1
sI27039
I1
sI27040
I1
sI27042
I1
sI27043
I1
sI27044
I1
sI222962
I1
sI256435
I1
sI387509
I1
sI158135
I1
sI51093
I1
sI27065
I1
sI27067
I1
sI27068
I1
sI27071
I1
sI27072
I1
sI387521
I1
sI27074
I1
sI27077
I1
sI27079
I1
sI27085
I1
sI27086
I1
sI27087
I1
sI27090
I1
sI646851
I1
sI256471
I1
sI27097
I1
sI27098
I1
sI27101
I1
sI27102
I1
sI27106
I1
sI27107
I1
sI27109
I1
sI27111
I1
sI780776
I1
sI27113
I1
sI27115
I1
sI27120
I1
sI27122
I1
sI135112
I1
sI27125
I1
sI27127
I1
sI27128
I1
sI27129
I1
sI27130
I1
sI27131
I1
sI27132
I1
sI27133
I1
sI27134
I1
sI27136
I1
sI92675
I1
sI617
I1
sI123041
I1
sI27145
I1
sI158219
I1
sI27148
I1
sI387597
I1
sI27151
I1
sI27152
I1
sI92689
I1
sI27154
I1
sI27156
I1
sI27158
I1
sI27159
I1
sI256536
I1
sI57643
I1
sI158234
I1
sI27163
I1
sI27165
I1
sI27166
I1
sI92703
I1
sI125476
I1
sI27173
I1
sI27175
I1
sI158248
I1
sI27177
I1
sI27178
I1
sI92715
I1
sI27180
I1
sI27181
I1
sI125488
I1
sI27185
I1
sI387638
I1
sI55610
I1
sI92737
I1
sI168374
I1
sI100526664
I1
sI92745
I1
sI256586
I1
sI92749
I1
sI158293
I1
sI158297
I1
sI27229
I1
sI27231
I1
sI27232
I1
sI27233
I1
sI27235
I1
sI27236
I1
sI27237
I1
sI27238
I1
sI27239
I1
sI27241
I1
sI27242
I1
sI27243
I1
sI27244
I1
sI387694
I1
sI387695
I1
sI27248
I1
sI27250
I1
sI27252
I1
sI27253
I1
sI158326
I1
sI23037
I1
sI387707
I1
sI92797
I1
sI92799
I1
sI387712
I1
sI256643
I1
sI23095
I1
sI387718
I1
sI441452
I1
sI100526737
I1
sI100526739
I1
sI27284
I1
sI92822
I1
sI27287
I1
sI27291
I1
sI27292
I1
sI27293
I1
sI27294
I1
sI27295
I1
sI27296
I1
sI27297
I1
sI27299
I1
sI27300
I1
sI27301
I1
sI27303
I1
sI27306
I1
sI152007
I1
sI27309
I1
sI105376432
I1
sI27315
I1
sI27316
I1
sI92856
I1
sI27324
I1
sI387775
I1
sI27328
I1
sI158401
I1
sI387778
I1
sI201163
I1
sI27332
I1
sI27333
I1
sI27334
I1
sI27335
I1
sI27338
I1
sI387787
I1
sI57649
I1
sI27342
I1
sI27343
I1
sI27345
I1
sI27346
I1
sI27347
I1
sI27348
I1
sI27349
I1
sI27351
I1
sI27352
I1
sI158427
I1
sI158431
I1
sI26007
I1
sI92906
I1
sI92912
I1
sI100526835
I1
sI113791
I1
sI256764
I1
sI387837
I1
sI125704
I1
sI92949
I1
sI92960
I1
sI27429
I1
sI27430
I1
sI27433
I1
sI27434
I1
sI27436
I1
sI387885
I1
sI201181
I1
sI27440
I1
sI387890
I1
sI27443
I1
sI387893
I1
sI113802
I1
sI387921
I1
sI93010
I1
sI93034
I1
sI201191
I1
sI162963
I1
sI158584
I1
sI93058
I1
sI387990
I1
sI60312
I1
sI93081
I1
sI93082
I1
sI56267
I1
sI93099
I1
sI93100
I1
sI125875
I1
sI388021
I1
sI60343
I1
sI284612
I1
sI256957
I1
sI266743
I1
sI93134
I1
sI23381
I1
sI256979
I1
sI283129
I1
sI93145
I1
sI23331
I1
sI256987
I1
sI60385
I1
sI60386
I1
sI266747
I1
sI125931
I1
sI93166
I1
sI60401
I1
sI257019
I1
sI60412
I1
sI125950
I1
sI93185
I1
sI93190
I1
sI257044
I1
sI60437
I1
sI388121
I1
sI93210
I1
sI158747
I1
sI125981
I1
sI125988
I1
sI257062
I1
sI388135
I1
sI158763
I1
sI257068
I1
sI93233
I1
sI60468
I1
sI100133941
I1
sI126006
I1
sI126014
I1
sI60481
I1
sI60482
I1
sI158787
I1
sI60484
I1
sI60485
I1
sI259217
I1
sI60487
I1
sI60488
I1
sI60489
I1
sI60490
I1
sI60491
I1
sI60492
I1
sI257101
I1
sI60494
I1
sI60495
I1
sI158800
I1
sI257106
I1
sI283150
I1
sI93273
I1
sI60509
I1
sI124773
I1
sI92579
I1
sI60526
I1
sI60528
I1
sI158833
I1
sI126070
I1
sI257144
I1
sI126075
I1
sI388228
I1
sI257160
I1
sI93323
I1
sI60558
I1
sI60560
I1
sI257169
I1
sI158866
I1
sI93343
I1
sI4635
I1
sI93349
I1
sI126119
I1
sI257194
I1
sI126123
I1
sI60592
I1
sI126129
I1
sI126133
I1
sI60598
I1
sI388284
I1
sI93377
I1
sI257218
I1
sI126147
I1
sI60625
I1
sI60626
I1
sI57142
I1
sI93408
I1
sI388323
I1
sI388324
I1
sI4646
I1
sI388335
I1
sI388336
I1
sI93426
I1
sI388341
I1
sI93432
I1
sI157567
I1
sI126204
I1
sI126205
I1
sI60672
I1
sI60675
I1
sI60676
I1
sI60677
I1
sI60678
I1
sI60680
I1
sI60681
I1
sI60682
I1
sI60684
I1
sI60685
I1
sI60686
I1
sI126231
I1
sI100506012
I1
sI84947
I1
sI257313
I1
sI93474
I1
sI388389
I1
sI126248
I1
sI59271
I1
sI93487
I1
sI26504
I1
sI126259
I1
sI93492
I1
sI26027
I1
sI10123
I1
sI158399
I1
sI93517
I1
sI197335
I1
sI223117
I1
sI257364
I1
sI126295
I1
sI100101467
I1
sI126306
I1
sI93550
I1
sI126321
I1
sI159090
I1
sI159091
I1
sI257397
I1
sI126326
I1
sI64745
I1
sI126328
I1
sI257415
I1
sI93589
I1
sI93594
I1
sI388512
I1
sI90407
I1
sI126374
I1
sI93611
I1
sI126382
I1
sI283208
I1
sI195827
I1
sI388533
I1
sI152137
I1
sI93624
I1
sI195828
I1
sI93627
I1
sI388551
I1
sI388553
I1
sI93643
I1
sI388558
I1
sI388559
I1
sI388561
I1
sI4686
I1
sI388567
I1
sI159195
I1
sI93663
I1
sI93664
I1
sI126433
I1
sI388581
I1
sI388585
I1
sI388591
I1
sI9666
I1
sI100134391
I1
sI388610
I1
sI388611
I1
sI23101
I1
sI388630
I1
sI90411
I1
sI9353
I1
sI388650
I1
sI100134444
I1
sI163081
I1
sI126526
I1
sI159296
I1
sI283232
I1
sI28227
I1
sI54869
I1
sI28232
I1
sI126549
I1
sI388695
I1
sI388698
I1
sI392465
I1
sI192111
I1
sI388743
I1
sI159371
I1
sI388753
I1
sI126626
I1
sI388780
I1
sI90416
I1
sI59338
I1
sI388799
I1
sI126668
I1
sI126669
I1
sI140609
I1
sI59342
I1
sI152185
I1
sI26575
I1
sI100128496
I1
sI59344
I1
sI388849
I1
sI337876
I1
sI93953
I1
sI59352
I1
sI93973
I1
sI388886
I1
sI26585
I1
sI93978
I1
sI93979
I1
sI93986
I1
sI124245
I1
sI94015
I1
sI388931
I1
sI126789
I1
sI100527949
I1
sI94031
I1
sI94039
I1
sI100527963
I1
sI28511
I1
sI28513
I1
sI28514
I1
sI388963
I1
sI126820
I1
sI126823
I1
sI388969
I1
sI94081
I1
sI92140
I1
sI126859
I1
sI94097
I1
sI94101
I1
sI94103
I1
sI94104
I1
sI100528030
I1
sI64837
I1
sI26608
I1
sI94120
I1
sI94121
I1
sI94122
I1
sI94134
I1
sI389058
I1
sI64843
I1
sI552900
I1
sI126917
I1
sI159686
I1
sI28231
I1
sI102723532
I1
sI389072
I1
sI389073
I1
sI389075
I1
sI258010
I1
sI389084
I1
sI56257
I1
sI4775
I1
sI954
I1
sI126969
I1
sI389114
I1
sI389118
I1
sI389119
I1
sI10241
I1
sI92162
I1
sI26051
I1
sI4781
I1
sI389136
I1
sI94233
I1
sI127002
I1
sI127003
I1
sI94239
I1
sI94240
I1
sI94241
I1
sI389158
I1
sI389161
I1
sI127018
I1
sI389170
I1
sI389177
I1
sI57082
I1
sI94274
I1
sI170082
I1
sI389197
I1
sI389206
I1
sI389208
I1
sI4795
I1
sI4803
I1
sI127124
I1
sI10265
I1
sI192666
I1
sI553115
I1
sI192669
I1
sI192670
I1
sI192683
I1
sI146802
I1
sI135886
I1
sI389336
I1
sI389337
I1
sI159963
I1
sI284656
I1
sI389362
I1
sI159989
I1
sI135892
I1
sI389383
I1
sI389384
I1
sI127247
I1
sI127253
I1
sI127254
I1
sI127255
I1
sI28952
I1
sI28954
I1
sI28955
I1
sI28956
I1
sI28959
I1
sI28960
I1
sI28964
I1
sI28966
I1
sI55031
I1
sI28968
I1
sI28970
I1
sI28971
I1
sI389421
I1
sI28976
I1
sI127281
I1
sI256051
I1
sI28981
I1
sI28982
I1
sI28983
I1
sI389432
I1
sI28985
I1
sI389434
I1
sI102723899
I1
sI28988
I1
sI28989
I1
sI28990
I1
sI28992
I1
sI28996
I1
sI266977
I1
sI27153
I1
sI29015
I1
sI29028
I1
sI29035
I1
sI127343
I1
sI29058
I1
sI29062
I1
sI29063
I1
sI29066
I1
sI160140
I1
sI29070
I1
sI29072
I1
sI29074
I1
sI29079
I1
sI29081
I1
sI29083
I1
sI29085
I1
sI29086
I1
sI29087
I1
sI29088
I1
sI4848
I1
sI29090
I1
sI29091
I1
sI127396
I1
sI389541
I1
sI29097
I1
sI29098
I1
sI29099
I1
sI29100
I1
sI389549
I1
sI29102
I1
sI29104
I1
sI29106
I1
sI29108
I1
sI29109
I1
sI102724023
I1
sI29115
I1
sI29116
I1
sI29117
I1
sI29118
I1
sI29119
I1
sI29121
I1
sI29123
I1
sI29124
I1
sI29126
I1
sI29127
I1
sI29128
I1
sI127435
I1
sI267002
I1
sI53833
I1
sI389602
I1
sI157777
I1
sI119548
I1
sI389610
I1
sI135935
I1
sI127495
I1
sI389643
I1
sI389649
I1
sI201475
I1
sI160287
I1
sI389668
I1
sI102724135
I1
sI160298
I1
sI127544
I1
sI348938
I1
sI388325
I1
sI160335
I1
sI22797
I1
sI127579
I1
sI160364
I1
sI160365
I1
sI389763
I1
sI57715
I1
sI283579
I1
sI102724250
I1
sI160418
I1
sI160419
I1
sI389799
I1
sI160428
I1
sI389812
I1
sI619189
I1
sI127687
I1
sI389840
I1
sI127700
I1
sI389860
I1
sI160492
I1
sI127731
I1
sI26750
I1
sI7179
I1
sI151556
I1
sI160518
I1
sI100526794
I1
sI256130
I1
sI389903
I1
sI92293
I1
sI100037417
I1
sI127795
I1
sI130827
I1
sI127829
I1
sI127833
I1
sI127845
I1
sI10385
I1
sI160622
I1
sI100130370
I1
sI222484
I1
sI4929
I1
sI102724488
I1
sI284680
I1
sI127933
I1
sI164656
I1
sI127943
I1
sI54093
I1
sI51596
I1
sI390110
I1
sI57154
I1
sI105378803
I1
sI160762
I1
sI160777
I1
sI128025
I1
sI102724652
I1
sI128061
I1
sI100529215
I1
sI29760
I1
sI29761
I1
sI29765
I1
sI29767
I1
sI128077
I1
sI160851
I1
sI29780
I1
sI29781
I1
sI390231
I1
sI160857
I1
sI221400
I1
sI29789
I1
sI100529251
I1
sI29796
I1
sI259173
I1
sI29800
I1
sI29801
I1
sI29803
I1
sI100529261
I1
sI6448
I1
sI387263
I1
sI259197
I1
sI105378949
I1
sI29841
I1
sI29842
I1
sI29843
I1
sI29844
I1
sI128153
I1
sI29850
I1
sI259230
I1
sI29855
I1
sI259232
I1
sI259236
I1
sI285521
I1
sI128178
I1
sI29880
I1
sI29881
I1
sI29883
I1
sI29886
I1
sI29887
I1
sI29888
I1
sI29889
I1
sI29893
I1
sI29894
I1
sI29896
I1
sI22818
I1
sI29902
I1
sI29904
I1
sI128209
I1
sI29906
I1
sI29907
I1
sI29911
I1
sI29914
I1
sI29915
I1
sI29916
I1
sI29919
I1
sI29920
I1
sI29922
I1
sI201595
I1
sI29924
I1
sI29925
I1
sI29926
I1
sI259307
I1
sI29933
I1
sI29934
I1
sI128239
I1
sI128240
I1
sI29940
I1
sI29941
I1
sI29942
I1
sI29943
I1
sI29944
I1
sI29945
I1
sI29947
I1
sI29949
I1
sI29951
I1
sI29952
I1
sI29953
I1
sI29954
I1
sI29956
I1
sI29957
I1
sI29958
I1
sI29959
I1
sI29965
I1
sI29966
I1
sI29967
I1
sI29968
I1
sI29969
I1
sI29970
I1
sI29974
I1
sI29979
I1
sI29982
I1
sI29984
I1
sI29985
I1
sI29986
I1
sI29988
I1
sI29989
I1
sI29991
I1
sI29992
I1
sI29994
I1
sI29995
I1
sI29998
I1
sI30000
I1
sI30001
I1
sI128308
I1
sI22895
I1
sI30009
I1
sI84548
I1
sI6455
I1
sI128338
I1
sI128344
I1
sI128346
I1
sI30061
I1
sI26097
I1
sI128387
I1
sI100506084
I1
sI161176
I1
sI128414
I1
sI201627
I1
sI128434
I1
sI95681
I1
sI390595
I1
sI390598
I1
sI201633
I1
sI643680
I1
sI55848
I1
sI751071
I1
sI161253
I1
sI128506
I1
sI81493
I1
sI102725121
I1
sI9735
I1
sI54472
I1
sI128553
I1
sI63027
I1
sI63035
I1
sI261729
I1
sI161357
I1
sI55565
I1
sI390748
I1
sI128611
I1
sI128637
I1
sI161424
I1
sI124590
I1
sI161436
I1
sI128674
I1
sI652991
I1
sI128710
I1
sI153396
I1
sI54221
I1
sI161497
I1
sI390877
I1
sI161502
I1
sI83939
I1
sI653509
I1
sI161514
I1
sI5075
I1
sI9743
I1
sI390916
I1
sI22837
I1
sI55850
I1
sI653067
I1
sI390928
I1
sI653082
I1
sI285533
I1
sI390940
I1
sI90488
I1
sI55572
I1
sI161582
I1
sI200315
I1
sI81545
I1
sI653121
I1
sI390980
I1
sI128853
I1
sI653145
I1
sI128859
I1
sI653149
I1
sI128869
I1
sI120227
I1
sI81559
I1
sI391059
I1
sI55576
I1
sI653220
I1
sI392862
I1
sI26953
I1
sI128954
I1
sI161742
I1
sI128977
I1
sI6477
I1
sI161753
I1
sI653275
I1
sI128989
I1
sI283078
I1
sI653308
I1
sI129049
I1
sI161823
I1
sI161829
I1
sI161835
I1
sI57763
I1
sI158046
I1
sI129080
I1
sI150223
I1
sI161882
I1
sI30811
I1
sI30813
I1
sI30815
I1
sI30817
I1
sI30818
I1
sI30819
I1
sI30820
I1
sI30827
I1
sI22849
I1
sI30833
I1
sI129138
I1
sI30835
I1
sI30837
I1
sI92521
I1
sI100169851
I1
sI30844
I1
sI653437
I1
sI55339
I1
sI30848
I1
sI30850
I1
sI30851
I1
sI134145
I1
sI161931
I1
sI147138
I1
sI4301
I1
sI5147
I1
sI81607
I1
sI260293
I1
sI22852
I1
sI653513
I1
sI96459
I1
sI653519
I1
sI162517
I1
sI5155
I1
sI22853
I1
sI83786
I1
sI3213
I1
sI30968
I1
sI201799
I1
sI653567
I1
sI22854
I1
sI129285
I1
sI129293
I1
sI653583
I1
sI129303
I1
sI132014
I1
sI136242
I1
sI402569
I1
sI27018
I1
sI260425
I1
sI56945
I1
sI63826
I1
sI63827
I1
sI55591
I1
sI4308
I1
sI10641
I1
sI387119
I1
sI9764
I1
sI10643
I1
sI653689
I1
sI63874
I1
sI63876
I1
sI63877
I1
sI27032
I1
sI63892
I1
sI164312
I1
sI63894
I1
sI63895
I1
sI653720
I1
sI63897
I1
sI63898
I1
sI63908
I1
sI63910
I1
sI129450
I1
sI5191
I1
sI63916
I1
sI63917
I1
sI54344
I1
sI63922
I1
sI63923
I1
sI63924
I1
sI63925
I1
sI63926
I1
sI63929
I1
sI63932
I1
sI63933
I1
sI63934
I1
sI63935
I1
sI63939
I1
sI63941
I1
sI63946
I1
sI10659
I1
sI63967
I1
sI63970
I1
sI63971
I1
sI63976
I1
sI63977
I1
sI162282
I1
sI63979
I1
sI63982
I1
sI653808
I1
sI5204
I1
sI129531
I1
sI96764
I1
sI64005
I1
sI284058
I1
sI129563
I1
sI162333
I1
sI81669
I1
sI653857
I1
sI391723
I1
sI92595
I1
sI64061
I1
sI64062
I1
sI92597
I1
sI5216
I1
sI64066
I1
sI64067
I1
sI129607
I1
sI64073
I1
sI64077
I1
sI64078
I1
sI64080
I1
sI64081
I1
sI64083
I1
sI64084
I1
sI64087
I1
sI64089
I1
sI162394
I1
sI64091
I1
sI64092
I1
sI64093
I1
sI64094
I1
sI64096
I1
sI64097
I1
sI64098
I1
sI64100
I1
sI64105
I1
sI129642
I1
sI64109
I1
sI162417
I1
sI64114
I1
sI64116
I1
sI64118
I1
sI64121
I1
sI162427
I1
sI64127
I1
sI64129
I1
sI64130
I1
sI64131
I1
sI64132
I1
sI92609
I1
sI64137
I1
sI64145
I1
sI64147
I1
sI129684
I1
sI129685
I1
sI64151
I1
sI162461
I1
sI162466
I1
sI64167
I1
sI64168
I1
sI64170
I1
sI55602
I1
sI64172
I1
sI64174
I1
sI64175
I1
sI64180
I1
sI162494
I1
sI22869
I1
sI54512
I1
sI162514
I1
sI162515
I1
sI158158
I1
sI64215
I1
sI64216
I1
sI64218
I1
sI64219
I1
sI64220
I1
sI64221
I1
sI64223
I1
sI64224
I1
sI64225
I1
sI64231
I1
sI64236
I1
sI64240
I1
sI64241
I1
sI55689
I1
sI27094
I1
sI27095
I1
sI129804
I1
sI51761
I1
sI129807
I1
sI100288814
I1
sI64282
I1
sI64283
I1
sI64284
I1
sI64285
I1
sI64288
I1
sI129831
I1
sI129852
I1
sI64318
I1
sI64319
I1
sI64320
I1
sI64324
I1
sI64326
I1
sI64327
I1
sI64328
I1
sI5260
I1
sI64332
I1
sI64333
I1
sI64342
I1
sI64343
I1
sI64344
I1
sI129881
I1
sI162655
I1
sI64359
I1
sI27112
I1
sI64374
I1
sI64375
I1
sI64376
I1
sI162681
I1
sI64386
I1
sI64388
I1
sI64393
I1
sI64395
I1
sI64397
I1
sI64398
I1
sI64399
I1
sI64400
I1
sI64403
I1
sI64405
I1
sI64407
I1
sI64409
I1
sI64411
I1
sI64412
I1
sI64418
I1
sI64419
I1
sI64420
I1
sI64421
I1
sI64422
I1
sI64423
I1
sI64425
I1
sI64426
I1
sI26150
I1
sI64428
I1
sI64429
I1
sI64430
I1
sI64431
I1
sI55858
I1
sI27124
I1
sI54431
I1
sI100885850
I1
sI64446
I1
sI130013
I1
sI326624
I1
sI326625
I1
sI92667
I1
sI130026
I1
sI5287
I1
sI90529
I1
sI123263
I1
sI64506
I1
sI3239
I1
sI10877
I1
sI64518
I1
sI654346
I1
sI100170765
I1
sI55614
I1
sI130074
I1
sI55615
I1
sI130106
I1
sI64577
I1
sI27147
I1
sI64581
I1
sI130120
I1
sI148362
I1
sI55616
I1
sI130132
I1
sI64598
I1
sI64599
I1
sI64600
I1
sI64601
I1
sI654429
I1
sI91624
I1
sI387601
I1
sI130162
I1
sI392307
I1
sI9790
I1
sI654463
I1
sI64645
I1
sI64651
I1
sI162962
I1
sI654483
I1
sI27161
I1
sI162972
I1
sI414918
I1
sI654502
I1
sI22885
I1
sI64682
I1
sI283847
I1
sI162989
I1
sI64689
I1
sI64699
I1
sI64708
I1
sI64710
I1
sI64711
I1
sI55620
I1
sI64718
I1
sI392399
I1
sI163033
I1
sI130271
I1
sI55860
I1
sI22887
I1
sI195814
I1
sI64743
I1
sI64744
I1
sI163049
I1
sI64747
I1
sI64748
I1
sI64750
I1
sI64753
I1
sI64754
I1
sI163059
I1
sI64756
I1
sI64757
I1
sI64759
I1
sI64760
I1
sI64761
I1
sI64762
I1
sI64763
I1
sI64764
I1
sI92714
I1
sI64766
I1
sI163071
I1
sI64768
I1
sI64769
I1
sI64770
I1
sI64771
I1
sI64772
I1
sI64773
I1
sI64776
I1
sI64777
I1
sI64778
I1
sI64779
I1
sI64780
I1
sI64781
I1
sI64782
I1
sI64783
I1
sI64784
I1
sI64785
I1
sI64786
I1
sI64788
I1
sI64792
I1
sI64793
I1
sI64794
I1
sI64798
I1
sI64799
I1
sI64800
I1
sI64801
I1
sI64802
I1
sI130340
I1
sI64806
I1
sI64816
I1
sI130355
I1
sI283870
I1
sI163131
I1
sI392509
I1
sI130367
I1
sI64834
I1
sI147339
I1
sI27190
I1
sI64838
I1
sI64839
I1
sI64840
I1
sI388419
I1
sI2159
I1
sI64844
I1
sI64847
I1
sI64848
I1
sI64849
I1
sI64850
I1
sI64854
I1
sI64855
I1
sI64856
I1
sI64857
I1
sI64858
I1
sI64859
I1
sI64863
I1
sI64864
I1
sI64866
I1
sI163175
I1
sI163183
I1
sI64895
I1
sI64897
I1
sI64900
I1
sI64901
I1
sI64902
I1
sI195977
I1
sI64919
I1
sI64921
I1
sI54511
I1
sI64924
I1
sI64926
I1
sI64927
I1
sI64928
I1
sI169200
I1
sI64943
I1
sI6527
I1
sI22894
I1
sI163255
I1
sI163259
I1
sI392636
I1
sI5365
I1
sI64963
I1
sI64965
I1
sI654790
I1
sI64969
I1
sI130507
I1
sI64976
I1
sI64979
I1
sI130535
I1
sI196074
I1
sI65003
I1
sI130540
I1
sI65005
I1
sI65009
I1
sI65010
I1
sI55630
I1
sI130557
I1
sI359948
I1
sI22897
I1
sI130576
I1
sI55821
I1
sI163351
I1
sI130589
I1
sI65055
I1
sI65056
I1
sI65057
I1
sI65059
I1
sI65061
I1
sI65062
I1
sI65065
I1
sI120071
I1
sI65080
I1
sI130617
I1
sI65083
I1
sI65084
I1
sI387680
I1
sI343990
I1
sI65094
I1
sI65095
I1
sI22899
I1
sI163404
I1
sI65109
I1
sI65110
I1
sI360023
I1
sI65117
I1
sI261726
I1
sI65121
I1
sI65123
I1
sI65125
I1
sI261734
I1
sI22901
I1
sI27246
I1
sI353514
I1
sI27247
I1
sI163486
I1
sI196264
I1
sI130733
I1
sI130752
I1
sI65217
I1
sI65220
I1
sI196294
I1
sI27255
I1
sI65243
I1
sI65244
I1
sI65249
I1
sI147409
I1
sI65258
I1
sI338557
I1
sI65266
I1
sI65267
I1
sI65268
I1
sI130814
I1
sI163589
I1
sI163590
I1
sI360200
I1
sI360203
I1
sI254225
I1
sI360205
I1
sI196374
I1
sI6539
I1
sI196383
I1
sI55640
I1
sI360226
I1
sI256646
I1
sI196394
I1
sI135293
I1
sI196403
I1
sI130872
I1
sI196415
I1
sI100653515
I1
sI130888
I1
sI196446
I1
sI23567
I1
sI130916
I1
sI163688
I1
sI196463
I1
sI27283
I1
sI163702
I1
sI22909
I1
sI130940
I1
sI196483
I1
sI158358
I1
sI130951
I1
sI126567
I1
sI100302736
I1
sI196500
I1
sI79649
I1
sI196513
I1
sI163747
I1
sI196527
I1
sI196528
I1
sI163782
I1
sI163786
I1
sI131034
I1
sI219970
I1
sI327657
I1
sI338599
I1
s.